(dp1
S'id_to_char'
p2
(dp3
I0
Va
sI1
VA
sI2
Ve
sI3
Vk
sI4
Vr
sI5
Vs
sI6
VM
sI7
Vh
sI8
Vi
sI9
VI
sI10
Vn
sI11
Vm
sI12
Vl
sI13
Vw
sI14
Vo
sI15
Vp
sI16
VE
sI17
Vy
sI18
Vj
sI19
Vx
sI20
Vv
sI21
Vu
sI22
Vb
sI23
Vt
sI24
Vg
sI25
V.
sI26
VO
sI27
VU
sI28
VS
sI29
V,
sI30
Vc
sI31
Vd
sI32
VB
sI33
VW
sI34
VK
sI35
VP
sI36
VZ
sI37
VY
sI38
VX
sI39
VC
sI40
VR
sI41
V-
sI42
VN
sI43
VG
sI44
V0
sI45
V1
sI46
Vq
sI47
VT
sI48
VD
sI49
Vz
sI50
V5
sI51
VJ
sI52
V2
sI53
V3
sI54
V4
sI55
V'
sI56
V9
sI57
V8
sI58
V6
sI59
V"
sI60
V7
sI61
V\u201c
sI62
V(
sI63
V)
sI64
V?
sI65
VH
sI66
VF
sI67
V:
sI68
V_
sI69
V!
sI70
V/
sI71
V@
sI72
VV
ssS'id_to_tag'
p4
(dp5
I0
VO
sI1
VS-LOC
p6
sI2
VS-MISC
p7
sI3
VS-PER
p8
sI4
VS-ORG
p9
sI5
VB-PER
p10
sI6
VE-PER
p11
sI7
VB-LOC
p12
sI8
VE-LOC
p13
sI9
VI-PER
p14
sI10
VB-MISC
p15
sI11
VE-MISC
p16
sI12
VI-LOC
p17
ssS'id_to_word'
p18
(dp19
I0
S'<UNK>'
p20
sI1
V.
sI2
Vke
p21
sI3
VhE
p22
sI4
V,
sI5
VmeM
p23
sI6
VkI
p24
sI7
Vse
p25
sI8
VOra
p26
sI9
VhEM
p27
sI10
VkA
p28
sI11
Vko
p29
sI12
Vpara
p30
sI13
Veka
p31
sI14
VBI
p32
sI15
Vlie
p33
sI16
V-
sI17
VyahAM
p34
sI18
Visa
p35
sI19
Vyaha
p36
sI20
VhI
p37
sI21
Vki
p38
sI22
VApa
p39
sI23
Vwo
p40
sI24
VnahIM
p41
sI25
VsAWa
p42
sI26
Vne
p43
sI27
Vsakawe
p44
sI28
VjA
p45
sI29
Vkara
p46
sI30
VkuCa
p47
sI31
Vapane
p48
sI32
VWA
p49
sI33
Vho
p50
sI34
Vwaka
p51
sI35
VjAwA
p52
sI36
Vkarane
p53
sI37
VApako
p54
sI38
Vjo
p55
sI39
VvAle
p56
sI40
VkiyA
p57
sI41
VkaI
p58
sI42
Vlekina
p59
sI43
VgayA
p60
sI44
Vva
p61
sI45
VyA
p62
sI46
VbAxa
p63
sI47
VvahAM
p64
sI48
Vbahuwa
p65
sI49
Visake
p66
sI50
VSahara
p67
sI51
VsWiwa
p68
sI52
Vwaraha
p69
sI53
Vagara
p70
sI54
VapanI
p71
sI55
VpAsa
p72
sI56
Vjagaha
p73
sI57
VmaMxira
p74
sI58
VxOrAna
p75
sI59
VsakawA
p76
sI60
VjAne
p77
sI61
Vrahe
p78
sI62
Vsabase
p79
sI63
VBArawa
p80
sI64
VbIca
p81
sI65
VtrEvala
p82
sI66
Vina
p83
sI67
Vhone
p84
sI68
Vkarawe
p85
sI69
VrahA
p86
sI70
Vhue
p87
sI71
V'
sI72
VjahAM
p88
sI73
Vpahale
p89
sI74
VhuA
p90
sI75
VjAnA
p91
sI76
Vsamaya
p92
sI77
Vkama
p93
sI78
VparyatakoM
p94
sI79
VxillI
p95
sI80
VkilomItara
p96
sI81
VxeSa
p97
sI82
VjyAxA
p98
sI83
VlogoM
p99
sI84
Vhotala
p100
sI85
VrahI
p101
sI86
Vna
p102
sI87
VxvArA
p103
sI88
VAne
p104
sI89
VkahA
p105
sI90
VxUra
p106
sI91
VxeKane
p107
sI92
VevaM
p108
sI93
VjAwI
p109
sI94
VkAPI
p110
sI95
VsAla
p111
sI96
VkisI
p112
sI97
V"
sI98
VEse
p113
sI99
VKUbasUrawa
p114
sI100
ValAvA
p115
sI101
Vle
p116
sI102
VyAwrA
p117
sI103
VWe
p118
sI104
VhowA
p119
sI105
VwamAma
p120
sI106
VApake
p121
sI107
Vlekara
p122
sI108
Vvaha
p123
sI109
Valaga
p124
sI110
VvAlI
p125
sI111
Vvajaha
p126
sI112
VWI
p127
sI113
VkoI
p128
sI114
VnAma
p129
sI115
Vparyatana
p130
sI116
VraKeM
p131
sI117
VbAre
p132
sI118
VbAwa
p133
sI119
VhuI
p134
sI120
Vbehaxa
p135
sI121
Vloga
p136
sI122
VrUpa
p137
sI123
VjarUra
p138
sI124
VpAnI
p139
sI125
VsWAna
p140
sI126
VhAlAMki
p141
sI127
Vhara
p142
sI128
VsaBI
p143
sI129
VvEse
p144
sI130
VxUrI
p145
sI131
VPira
p146
sI132
VkRewra
p147
sI133
VkarawA
p148
sI134
VmOsama
p149
sI135
Vmahala
p150
sI136
VxuniyA
p151
sI137
Vbasa
p152
sI138
Vjaba
p153
sI139
VkyoMki
p154
sI140
VGUmane
p155
sI141
Vaba
p156
sI142
VbadZe
p157
sI143
Vora
p158
sI144
VsakawI
p159
sI145
VbanA
p160
sI146
VgaI
p161
sI147
Visase
p162
sI148
Vise
p163
sI149
VjAwe
p164
sI150
VhowI
p165
sI151
VjAeM
p166
sI152
VGaMte
p167
sI153
VxeKa
p168
sI154
Visalie
p169
sI155
VkaranA
p170
sI156
VkarawI
p171
sI157
VmItara
p172
sI158
VKAsa
p173
sI159
VPIsaxI
p174
sI160
VisI
p175
sI161
VkareM
p176
sI162
VxinoM
p177
sI163
Vxo
p178
sI164
Vye
p179
sI165
V\u201c
sI166
Vgae
p180
sI167
VhogA
p181
sI168
VpraxeSa
p182
sI169
VrAjasWAna
p183
sI170
VsI
p184
sI171
Vsamuxra
p185
sI172
VtUra
p186
sI173
VvAlA
p187
sI174
VjEse
p188
sI175
VlagaBaga
p189
sI176
VXyAna
p190
sI177
VmuJe
p191
sI178
VpasaMxa
p192
sI179
VsadZaka
p193
sI180
Vusa
p194
sI181
VvagEraha
p195
sI182
VBArawIya
p196
sI183
VapanA
p197
sI184
Vhama
p198
sI185
VisakI
p199
sI186
VmEM
p200
sI187
VpUrI
p201
sI188
Vunake
p202
sI189
VwaWA
p203
sI190
VBara
p204
sI191
VbawAyA
p205
sI192
VkAma
p206
sI193
VleM
p207
sI194
Vxina
p208
sI195
V(
sI196
V)
sI197
VEsI
p209
sI198
VjagahoM
p210
sI199
Vparyataka
p211
sI200
VsEra
p212
sI201
VsaPara
p213
sI202
VxeKA
p214
sI203
VgovA
p215
sI204
VmArga
p216
sI205
VnaxI
p217
sI206
VtUrista
p218
sI207
VwIna
p219
sI208
VxI
p220
sI209
V?
sI210
VEsA
p221
sI211
VbadZI
p222
sI212
VeMjOYya
p223
sI213
Vjarie
p224
sI214
VkarIba
p225
sI215
VnEnIwAla
p226
sI216
VpUre
p227
sI217
VupalabXa
p228
sI218
VvixeSI
p229
sI219
VBagavAna
p230
sI220
VOYPa
p231
sI221
VUMcAI
p232
sI222
Vbane
p233
sI223
VmajA
p234
sI224
VpahAdZiyoM
p235
sI225
VrAjya
p236
sI226
VunheM
p237
sI227
VA
sI228
VbAra
p238
sI229
Vhowe
p239
sI230
VliyA
p240
sI231
Vmana
p241
sI232
Vmila
p242
sI233
VmuMbaI
p243
sI234
VvOYtara
p244
sI235
VxUsare
p245
sI236
VxeSoM
p246
sI237
VGAtI
p247
sI238
VacCI
p248
sI239
VjEsI
p249
sI240
VmAnA
p250
sI241
VnaI
p251
sI242
VpArka
p252
sI243
Vve
p253
sI244
Vxaraasala
p254
sI245
Vxene
p255
sI246
VAI
p256
sI247
VKAne
p257
sI248
VcAhie
p258
sI249
VhimAlaya
p259
sI250
VlagawA
p260
sI251
VwEyAra
p261
sI252
VPlAita
p262
sI253
VaBI
p263
sI254
VisakA
p264
sI255
VisameM
p265
sI256
VjahAz
p266
sI257
VkyA
p267
sI258
VpahAdZI
p268
sI259
VpiCale
p269
sI260
VrAwa
p270
sI261
VsAmAna
p271
sI262
VsWala
p272
sI263
Vvakwa
p273
sI264
VxiyA
p274
sI265
V10
p275
sI266
VAja
p276
sI267
VApakI
p277
sI268
VGara
p278
sI269
VKUbasUrawI
p279
sI270
VcAheM
p280
sI271
Vcarca
p281
sI272
VhUM
p282
sI273
VjAe
p283
sI274
VjisameM
p284
sI275
Vlene
p285
sI276
VmEMne
p286
sI277
VpUrA
p287
sI278
VprasixXa
p288
sI279
Vwata
p289
sI280
VKUba
p290
sI281
VSOYpiMga
p291
sI282
VSaharoM
p292
sI283
VSurU
p293
sI284
VUpara
p294
sI285
VanuBava
p295
sI286
VbarPa
p296
sI287
Vkerala
p297
sI288
VkirAe
p298
sI289
VprAkqwika
p299
sI290
VrAjaXAnI
p300
sI291
VsAmane
p301
sI292
VsuviXA
p302
sI293
VCotA
p303
sI294
VcAhawe
p304
sI295
VejeMta
p305
sI296
VhotaloM
p306
sI297
VkAraNa
p307
sI298
VkaBI
p308
sI299
VmahIne
p309
sI300
VmahawvapUrNa
p310
sI301
Vuwwara
p311
sI302
VyahI
p312
sI303
V15
p313
sI304
VAwe
p314
sI305
VKAnA
p315
sI306
VbEMgalora
p316
sI307
Vhamane
p317
sI308
VkaMpanI
p318
sI309
VsarakAra
p319
sI310
VAkarRiwa
p320
sI311
VCote
p321
sI312
VSawAbxI
p322
sI313
VSimalA
p323
sI314
Vasara
p324
sI315
VbadZA
p325
sI316
VbehawarIna
p326
sI317
VeyaralAiMsa
p327
sI318
VkamI
p328
sI319
VkinAre
p329
sI320
VmEsUra
p330
sI321
VmaSahUra
p331
sI322
VskIiMga
p332
sI323
VunakI
p333
sI324
VunhoMne
p334
sI325
Vuxyoga
p335
sI326
VyamunA
p336
sI327
V:
sI328
VApakA
p337
sI329
VacCA
p338
sI330
Vanya
p339
sI331
VbOxXa
p340
sI332
Vbesta
p341
sI333
VhimAcala
p342
sI334
VjAnakArI
p343
sI335
VjarUrI
p344
sI336
VjudZI
p345
sI337
VlagA
p346
sI338
VmuKya
p347
sI339
VnIce
p348
sI340
Vnajara
p349
sI341
VpahuMcane
p350
sI342
VrahawA
p351
sI343
VsteSana
p352
sI344
VtrEvaliMga
p353
sI345
Vuna
p354
sI346
Vwaba
p355
sI347
VAnaMxa
p356
sI348
VAsAnI
p357
sI349
VBare
p358
sI350
VCotI
p359
sI351
VGane
p360
sI352
VJIla
p361
sI353
VSuruAwa
p362
sI354
VXarma
p363
sI355
Vajamera
p364
sI356
Vbajata
p365
sI357
VcAra
p366
sI358
VcIjoM
p367
sI359
Veyara
p368
sI360
VhogI
p369
sI361
VinheM
p370
sI362
ViwihAsa
p371
sI363
Vjala
p372
sI364
VkahIM
p373
sI365
VkalA
p374
sI366
Vkalcara
p375
sI367
VmuwAbika
p376
sI368
VnajArA
p377
sI369
VpahuMca
p378
sI370
VpedZoM
p379
sI371
VrAswA
p380
sI372
VraMga
p381
sI373
VsaMKyA
p382
sI374
Vsaba
p383
sI375
VsirPa
p384
sI376
VspA
p385
sI377
Vsubaha
p386
sI378
VtI
p387
sI379
VvahIM
p388
sI380
VvixeSa
p389
sI381
VxewA
p390
sI382
VxvIpa
p391
sI383
VBUleM
p392
sI384
VCuttiyAM
p393
sI385
VKAsA
p394
sI386
VKAsawOra
p395
sI387
VSAmila
p396
sI388
Vbana
p397
sI389
VbanavAyA
p398
sI390
Veyaraporta
p399
sI391
VhamAre
p400
sI392
Vinake
p401
sI393
Vjile
p402
sI394
Vleka
p403
sI395
VmaMxI
p404
sI396
VsElAniyoM
p405
sI397
VsIjana
p406
sI398
VsitI
p407
sI399
Vusake
p408
sI400
VwOra
p409
sI401
Vxewe
p410
sI402
VxqSya
p411
sI403
V30
p412
sI404
VAge
p413
sI405
VSAMwa
p414
sI406
VTIka
p415
sI407
VUMcI
p416
sI408
VanusAra
p417
sI409
VbanAyA
p418
sI410
VbukiMga
p419
sI411
Vhila
p420
sI412
Vhisse
p421
sI413
Vhokara
p422
sI414
VjaMgala
p423
sI415
VjaMgaloM
p424
sI416
VjarUrawa
p425
sI417
Vjise
p426
sI418
Vkie
p427
sI419
VkilA
p428
sI420
VmaMxiroM
p429
sI421
VpIka
p430
sI422
Vpaviwra
p431
sI423
VprAcIna
p432
sI424
Vpraswuwa
p433
sI425
VpraxAna
p434
sI426
VsaMskqwi
p435
sI427
VwIrWa
p436
sI428
VxevI
p437
sI429
VyAxa
p438
sI430
VAkarRaNa
p439
sI431
VKela
p440
sI432
VbasA
p441
sI433
Vbehawara
p442
sI434
VcAroM
p443
sI435
Vcala
p444
sI436
VeMda
p445
sI437
VgAMva
p446
sI438
VgaDZavAla
p447
sI439
VhavAI
p448
sI440
ViMdiyA
p449
sI441
ViwanA
p450
sI442
VjAeMge
p451
sI443
VjIvana
p452
sI444
VjammU
p453
sI445
VjudZA
p454
sI446
Vkenxra
p455
sI447
VlEMsadAuna
p456
sI448
Vmaxaxa
p457
sI449
VnirmANa
p458
sI450
VpahalI
p459
sI451
Vprakqwi
p460
sI452
VraKA
p461
sI453
VraKane
p462
sI454
Vraha
p463
sI455
Vrelave
p464
sI456
VromAMca
p465
sI457
Vrupae
p466
sI458
VtIpU
p467
sI459
VusI
p468
sI460
VuxyAna
p469
sI461
VvAkaI
p470
sI462
VviSva
p471
sI463
VwAja
p472
sI464
Vxe
p473
sI465
VxeKakara
p474
sI466
Vxera
p475
sI467
VyAwriyoM
p476
sI468
VAsapAsa
p477
sI469
Vhare
p478
sI470
VhissA
p479
sI471
VhoM
p480
sI472
VjAegA
p481
sI473
Vjisase
p482
sI474
Vkahawe
p483
sI475
Vkevala
p484
sI476
Vki.mI.
p485
sI477
VmAhOla
p486
sI478
VmOkA
p487
sI479
VmaMwrAlaya
p488
sI480
VmajexAra
p489
sI481
VmalayeSiyA
p490
sI482
VmelA
p491
sI483
VpEkeja
p492
sI484
VpadZa
p493
sI485
VpurAne
p494
sI486
VrAswe
p495
sI487
VsA
p496
sI488
VsWAnIya
p497
sI489
VsWaloM
p498
sI490
VtEksI
p499
sI491
VtUrijama
p500
sI492
VtUristoM
p501
sI493
Vuse
p502
sI494
VvAloM
p503
sI495
Vxilacaspa
p504
sI496
VyahAz
p505
sI497
VAe
p506
sI498
VArohaNa
p507
sI499
VBUtAna
p508
sI500
VEwihAsika
p509
sI501
VSAma
p510
sI502
VSOka
p511
sI503
VTaharane
p512
sI504
VaXika
p513
sI505
VanuRkA
p514
sI506
VbAjAra
p515
sI507
Vbacce
p516
sI508
VhAla
p517
sI509
VhavA
p518
sI510
ViswemAla
p519
sI511
VkahanA
p520
sI512
Vkarake
p521
sI513
VlAiPa
p522
sI514
VlaMbI
p523
sI515
Vlaga
p524
sI516
Vliye
p525
sI517
VmilawA
p526
sI518
VmilegI
p527
sI519
VmyUjiyama
p528
sI520
Vnae
p529
sI521
VpAMca
p530
sI522
VpadZawI
p531
sI523
VprakAra
p532
sI524
Vprawi
p533
sI525
VraKawe
p534
sI526
VromAMcaka
p535
sI527
VsAPa
p536
sI528
VsWAnoM
p537
sI529
VsaMgIwa
p538
sI530
Vsana
p539
sI531
Vsportsa
p540
sI532
VsuMxara
p541
sI533
VsurakRiwa
p542
sI534
VtOYpa
p543
sI535
Vtrena
p544
sI536
Vtripa
p545
sI537
VuwkqRta
p546
sI538
VwakarIbana
p547
sI539
VwaraPa
p548
sI540
Vxa
p549
sI541
VxonoM
p550
sI542
VyUropa
p551
sI543
V5
sI544
VBIdZa
p552
sI545
VGirA
p553
sI546
VKuxa
p554
sI547
VSAnaxAra
p555
sI548
VSElI
p556
sI549
VTaMda
p557
sI550
VWodZI
p558
sI551
VaktUbara
p559
sI552
VbAhara
p560
sI553
VbAwoM
p561
sI554
VbritiSa
p562
sI555
VbuxXa
p563
sI556
Vcalane
p564
sI557
Vcalawe
p565
sI558
VdestineSana
p566
sI559
VgaMgA
p567
sI560
Vgrupa
p568
sI561
VhajAra
p569
sI562
Vkamare
p570
sI563
VkiMgaPiSara
p571
sI564
Vkile
p572
sI565
VlagawI
p573
sI566
Vlage
p574
sI567
Vlokapriya
p575
sI568
VmasAja
p576
sI569
VmaswI
p577
sI570
VpadZawA
p578
sI571
VpadZegA
p579
sI572
VpahAdZa
p580
sI573
VpahAdZoM
p581
sI574
VpawA
p582
sI575
Vpikanika
p583
sI576
VraKanA
p584
sI577
Vrahawe
p585
sI578
Vrela
p586
sI579
Vrupaye
p587
sI580
Vtikata
p588
sI581
VviBinna
p589
sI582
VviSAla
p590
sI583
VwavAMga
p591
sI584
Vwaya
p592
sI585
VxakRiNa
p593
sI586
VxeKawe
p594
sI587
VyAnI
p595
sI588
V25
p596
sI589
V50
p597
sI590
VBavya
p598
sI591
VGarelU
p599
sI592
VKarca
p600
sI593
VSiKara
p601
sI594
Vaksara
p602
sI595
VbETakara
p603
sI596
VbanAne
p604
sI597
VbanI
p605
sI598
Vbilkula
p606
sI599
VbinA
p607
sI600
VcIjeM
p608
sI601
VdOYktara
p609
sI602
Ve
sI603
VgirAvata
p610
sI604
VhAWa
p611
sI605
VhameSA
p612
sI606
VhonA
p613
sI607
ViwanI
p614
sI608
VjUna
p615
sI609
Vjayapura
p616
sI610
VjinameM
p617
sI611
VkamISana
p618
sI612
VlakRaxvIpa
p619
sI613
Vmasalana
p620
sI614
VnA
p621
sI615
Vnagara
p622
sI616
VpaScimI
p623
sI617
VpravakwA
p624
sI618
VpuNe
p625
sI619
VrahegA
p626
sI620
VsUraja
p627
sI621
VsahI
p628
sI622
VsamqxXa
p629
sI623
VsevA
p630
sI624
VsulwAna
p631
sI625
VsurakRA
p632
sI626
VtrekiMga
p633
sI627
VunakA
p634
sI628
Vuwsava
p635
sI629
VwAjamahala
p636
sI630
Vwahawa
p637
sI631
VxeKeM
p638
sI632
VxewI
p639
sI633
Vxie
p640
sI634
VyahIM
p641
sI635
V12
p642
sI636
V2
sI637
VAsa
p643
sI638
VAwI
p644
sI639
VAwaMkI
p645
sI640
VBarI
p646
sI641
VCuttiyoM
p647
sI642
VKAsI
p648
sI643
VSo
p649
sI644
VSrIlaMkA
p650
sI645
VXanOltI
p651
sI646
VaMxara
p652
sI647
VacCe
p653
sI648
Vagale
p654
sI649
VbAGa
p655
sI650
VbAika
p656
sI651
VbEga
p657
sI652
VbIkAnera
p658
sI653
VbaDZiyA
p659
sI654
VbaccoM
p660
sI655
Vbalki
p661
sI656
VbeSaka
p662
sI657
Vbegama
p663
sI658
Vbota
p664
sI659
VdAiviMga
p665
sI660
VdOYlara
p666
sI661
VdrAiviMga
p667
sI662
Vesa
p668
sI663
Vgarma
p669
sI664
VhAusa
p670
sI665
VhamaloM
p671
sI666
VhameM
p672
sI667
VilAhAbAxa
p673
sI668
VimArawa
p674
sI669
VjAnane
p675
sI670
VjI
p676
sI671
VjagaheM
p677
sI672
Vjisake
p678
sI673
VkAla
p679
sI674
VkapadZe
p680
sI675
VkaranI
p681
sI676
VkatOwI
p682
sI677
VkqRNa
p683
sI678
VkumAyUz
p684
sI679
VlAyaka
p685
sI680
VmAmale
p686
sI681
VmaWurA
p687
sI682
VmanAne
p688
sI683
VnajAre
p689
sI684
Vnikala
p690
sI685
VpElesa
p691
sI686
VpedZa
p692
sI687
VpramuKa
p693
sI688
VpraveSa
p694
sI689
VpurAnA
p695
sI690
VrARtrIya
p696
sI691
VrAma
p697
sI692
VraheM
p698
sI693
VsAloM
p699
sI694
VsIta
p700
sI695
VsWApiwa
p701
sI696
VsWiwi
p702
sI697
VsaMgama
p703
sI698
VsaMwa
p704
sI699
Vsake
p705
sI700
VsarakArI
p706
sI701
Vsarvowwama
p707
sI702
VseMtara
p708
sI703
VsuMxarawA
p709
sI704
Vswara
p710
sI705
VtUrijma
p711
sI706
VuTA
p712
sI707
VvarRa
p713
sI708
VwAki
p714
sI709
Vwala
p715
sI710
VwibbawI
p716
sI711
VxUsarI
p717
sI712
VxarSana
p718
sI713
VxeKanA
p719
sI714
VxeM
p720
sI715
VxiKAI
p721
sI716
VyojanA
p722
sI717
V20
p723
sI718
V40
p724
sI719
VAkara
p725
sI720
VAra
p726
sI721
VAyaralEMda
p727
sI722
VBale
p728
sI723
VKadZI
p729
sI724
VKarAba
p730
sI725
VKawma
p731
sI726
VKoja
p732
sI727
VPEle
p733
sI728
VPUda
p734
sI729
VPuta
p735
sI730
VSAyaxa
p736
sI731
VSarIra
p737
sI732
VUMta
p738
sI733
VUMtoM
p739
sI734
VWAIlEMda
p740
sI735
VXArmika
p741
sI736
VaPrIkA
p742
sI737
VahasAsa
p743
sI738
VajaMwA
p744
sI739
VamerikA
p745
sI740
VasalI
p746
sI741
Vavasara
p747
sI742
VbOYdI
p748
sI743
VbaDZa
p749
sI744
VbaMxa
p750
sI745
Vbacane
p751
sI746
VbanAe
p752
sI747
Vbaxala
p753
sI748
VcAya
p754
sI749
VcUMki
p755
sI750
Vcewana
p756
sI751
VcukA
p757
sI752
Vcuke
p758
sI753
VeSiyA
p759
sI754
Vena
p760
sI755
VjAhira
p761
sI756
VjAnawe
p762
sI757
VjalavAyu
p763
sI758
VjalxI
p764
sI759
VkAra
p765
sI760
VkaMpaniyAM
p766
sI761
VkaMpaniyoM
p767
sI762
VkaravAyA
p768
sI763
VkimI
p769
sI764
VlI
p770
sI765
Vlona
p771
sI766
VmArca
p772
sI767
VmaXya
p773
sI768
VmahilA
p774
sI769
VmanAlI
p775
sI770
VmarusWala
p776
sI771
Vmawalaba
p777
sI772
Vmere
p778
sI773
Vmijorama
p779
sI774
VmuhEyA
p780
sI775
VnavaMbara
p781
sI776
Vnecara
p782
sI777
VnukasAna
p783
sI778
VpAe
p784
sI779
VpAeMge
p785
sI780
VpAra
p786
sI781
VpOYpulara
p787
sI782
VpUrva
p788
sI783
VpahalA
p789
sI784
VpakRI
p790
sI785
Vpala
p791
sI786
VpareSAna
p792
sI787
VplAna
p793
sI788
Vprayoga
p794
sI789
VpuxuccerI
p795
sI790
VrAjyoM
p796
sI791
VsArI
p797
sI792
VsImA
p798
sI793
VsWApawya
p799
sI794
VsaMsAra
p800
sI795
VsamAna
p801
sI796
Vsarvisa
p802
sI797
VsarxiyoM
p803
sI798
VsiMha
p804
sI799
Vsistama
p805
sI800
VtEksa
p806
sI801
VvAwAvaraNa
p807
sI802
VvOYka
p808
sI803
Vvana
p809
sI804
Vvarlda
p810
sI805
VvikAsa
p811
sI806
Vvikasiwa
p812
sI807
Vvyakwi
p813
sI808
VvyavasWA
p814
sI809
VwApamAna
p815
sI810
Vweja
p816
sI811
V000
p817
sI812
V4
sI813
V6
sI814
V60
p818
sI815
VAXAra
p819
sI816
VAkarRaka
p820
sI817
VAma
p821
sI818
VArta
p822
sI819
VAvAsa
p823
sI820
VBAga
p824
sI821
VJIloM
p825
sI822
VJalaka
p826
sI823
VOYpSana
p827
sI824
VPEsalA
p828
sI825
VPIta
p829
sI826
VParavarI
p830
sI827
VPestivala
p831
sI828
VPilahAla
p832
sI829
VSAMwi
p833
sI830
VSrI
p834
sI831
VUMce
p835
sI832
VWIM
p836
sI833
VWodZA
p837
sI834
VXIre
p838
sI835
Vakele
p839
sI836
VaprEla
p840
sI837
VawyaMwa
p841
sI838
VbAkI
p842
sI839
Vbase
p843
sI840
VbawAwI
p844
sI841
VbawAwe
p845
sI842
VbiwAne
p846
sI843
Vborda
p847
sI844
Vbuka
p848
sI845
VcIna
p849
sI846
VcaleM
p850
sI847
VdrAiva
p851
sI848
VePa
p852
sI849
VejeMsI
p853
sI850
VekadZa
p854
sI851
Vema
p855
sI852
Vgqha
p856
sI853
VguPA
p857
sI854
VhamArA
p858
sI855
ViMSyoreMsa
p859
sI856
ViMdastrI
p860
sI857
VjAkara
p861
sI858
VjArI
p862
sI859
VjiMxagI
p863
sI860
VjudZe
p864
sI861
VkOYrbeta
p865
sI862
VkRewroM
p866
sI863
VkaSmIra
p867
sI864
VkahAM
p868
sI865
VkamaroM
p869
sI866
VkarA
p870
sI867
VkareMge
p871
sI868
Vkaxama
p872
sI869
VkoSiSa
p873
sI870
Vkone
p874
sI871
Vkula
p875
sI872
VlAKa
p876
sI873
VlAla
p877
sI874
Vlewe
p878
sI875
VlhAsA
p879
sI876
Vluka
p880
sI877
VmAMga
p881
sI878
VmExAna
p882
sI879
VmOjUxa
p883
sI880
VmaI
p884
sI881
VmahasUsa
p885
sI882
VmerI
p886
sI883
VmilawI
p887
sI884
VmileMge
p888
sI885
Vminata
p889
sI886
VmukAbale
p890
sI887
VnajaxIkI
p891
sI888
VnajaxIka
p892
sI889
VnaxiyoM
p893
sI890
VpIne
p894
sI891
VpUrvI
p895
sI892
VpaDZane
p896
sI893
VpadZA
p897
sI894
VpakRiyoM
p898
sI895
VpeSa
p899
sI896
Vporta
p900
sI897
Vprojekta
p901
sI898
VrAjA
p902
sI899
VrAja
p903
sI900
VrAmAyaNa
p904
sI901
VrUma
p905
sI902
Vrahane
p906
sI903
VrahawI
p907
sI904
VrikSA
p908
sI905
VsAhasika
p909
sI906
VsAwa
p910
sI907
VsIXI
p911
sI908
VsakeM
p912
sI909
Vsilasile
p913
sI910
VsiwaMbara
p914
sI911
VspeSala
p915
sI912
VsukUna
p916
sI913
VsvawaMwrawA
p917
sI914
VtAvara
p918
sI915
VtrAMsaporta
p919
sI916
VudZAna
p920
sI917
Vumra
p921
sI918
VusakI
p922
sI919
VuwsAha
p923
sI920
Vuwwama
p924
sI921
VvI
p925
sI922
VvyApAra
p926
sI923
VwalASa
p927
sI924
Vwibbawa
p928
sI925
Vxasa
p929
sI926
VxeKe
p930
sI927
VxurlaBa
p931
sI928
V1
sI929
V13
p932
sI930
V14
p933
sI931
V7
sI932
VAKira
p934
sI933
VAXunika
p935
sI934
VArAma
p936
sI935
VAsAna
p937
sI936
VBArI
p938
sI937
VBUmi
p939
sI938
VBarapUra
p940
sI939
VBramaNa
p941
sI940
VCawa
p942
sI941
VIko
p943
sI942
VKarIxa
p944
sI943
VKule
p945
sI944
VKvAjA
p946
sI945
VOYPara
p947
sI946
VOYPisa
p948
sI947
VOYto
p949
sI948
VPOYlsa
p950
sI949
VPirane
p951
sI950
VSilOYnga
p952
sI951
VSiva
p953
sI952
VUzta
p954
sI953
VWOYmasa
p955
sI954
VWakAna
p956
sI955
VXUpa
p957
sI956
VXamAkoM
p958
sI957
VaMgrejoM
p959
sI958
VaXikawara
p960
sI959
ValmodZA
p961
sI960
VbAMXa
p962
sI961
VbETane
p963
sI962
VbaMgAla
p964
sI963
Vbaje
p965
sI964
VbiwAyA
p966
sI965
Vbleyara
p967
sI966
VcAhe
p968
sI967
VcIdZa
p969
sI968
VcOkodZI
p970
sI969
VcaDZAI
p971
sI970
Vcakkara
p972
sI971
VcalawI
p973
sI972
VgAdZI
p974
sI973
VgArdana
p975
sI974
VgarmI
p976
sI975
Vgaye
p977
sI976
VgrAmINa
p978
sI977
Vgujarawe
p979
sI978
Vgulamarga
p980
sI979
VhExarAbAxa
p981
sI980
Vhalke
p982
sI981
Vhamale
p983
sI982
VhampI
p984
sI983
ViMgliSa
p985
sI984
ViMtaranESanala
p986
sI985
ViMwajAma
p987
sI986
VilAke
p988
sI987
VinameM
p989
sI988
Viwane
p990
sI989
VjanavarI
p991
sI990
Vjeta
p992
sI991
VkArobAra
p993
sI992
VkasIno
p994
sI993
VkeMxra
p995
sI994
VklAsa
p996
sI995
VkuSInagara
p997
sI996
VlaMkAvI
p998
sI997
VlaMxana
p999
sI998
VlagjarI
p1000
sI999
VlakadZI
p1001
sI1000
VlaxxAKa
p1002
sI1001
Vlokala
p1003
sI1002
VluBAne
p1004
sI1003
VluwPa
p1005
sI1004
VmAwA
p1006
sI1005
VmExAnoM
p1007
sI1006
VmOYdala
p1008
sI1007
VmUla
p1009
sI1008
VmahAna
p1010
sI1009
Vmahaja
p1011
sI1010
VmasUrI
p1012
sI1011
VmilegA
p1013
sI1012
VmuSkila
p1014
sI1013
Vmugala
p1015
sI1014
VnESanala
p1016
sI1015
VnOkAyana
p1017
sI1016
VnepAla
p1018
sI1017
Vnirmiwa
p1019
sI1018
Vo
sI1019
VpAsaporta
p1020
sI1020
VpAyala
p1021
sI1021
VpEsA
p1022
sI1022
VpICe
p1023
sI1023
VpaScima
p1024
sI1024
Vparvawa
p1025
sI1025
VpasaMxIxA
p1026
sI1026
VpawWara
p1027
sI1027
Vplesa
p1028
sI1028
VprApwa
p1029
sI1029
VprajAwiyoM
p1030
sI1030
Vpulisa
p1031
sI1031
VpurAnI
p1032
sI1032
VrIgA
p1033
sI1033
VraMgIna
p1034
sI1034
VrewIle
p1035
sI1035
VrisOYrta
p1036
sI1036
VsAranAWa
p1037
sI1037
VsadZakoM
p1038
sI1038
VsalAha
p1039
sI1039
VsamuxrI
p1040
sI1040
VsaraXanA
p1041
sI1041
VsaxI
p1042
sI1042
VsuviXAeM
p1043
sI1043
Vtesta
p1044
sI1044
Vtreka
p1045
sI1045
VtuarijZama
p1046
sI1046
VummIxa
p1047
sI1047
VuwwarAMcala
p1048
sI1048
VuxAharaNa
p1049
sI1049
VvAilda
p1050
sI1050
Vvikalpa
p1051
sI1051
VvimAna
p1052
sI1052
VwAla
p1053
sI1053
VwasvIra
p1054
sI1054
VwejI
p1055
sI1055
VxIva
p1056
sI1056
Vxara
p1057
sI1057
VxaragAha
p1058
sI1058
VxeKI
p1059
sI1059
VxilacaspI
p1060
sI1060
VxoswoM
p1061
sI1061
VxukAnoM
p1062
sI1062
VxuniyABara
p1063
sI1063
VyAxagAra
p1064
sI1064
V!
sI1065
V18
p1065
sI1066
VAMKoM
p1066
sI1067
VAmawOra
p1067
sI1068
VAnA
p1068
sI1069
VAnanxa
p1069
sI1070
VAsamAna
p1070
sI1071
VAwA
p1071
sI1072
VAyA
p1072
sI1073
VBarA
p1073
sI1074
VBarawapura
p1074
sI1075
VCaha
p1075
sI1076
VCora
p1076
sI1077
VGaMtA
p1077
sI1078
VKAdZI
p1078
sI1079
VKadZe
p1079
sI1080
VKajurAho
p1080
sI1081
VOYna
p1081
sI1082
VOYstreliyA
p1082
sI1083
VPAyaxA
p1083
sI1084
VPElI
p1084
sI1085
VPOYrena
p1085
sI1086
VSulka
p1086
sI1087
VSuruAwI
p1087
sI1088
VUzcAI
p1088
sI1089
VWAra
p1089
sI1090
VWerapI
p1090
sI1091
VaMdamAna
p1091
sI1092
VaMwararARtrIya
p1092
sI1093
VaMxAjA
p1093
sI1094
VadaveMcara
p1094
sI1095
Vaneka
p1095
sI1096
Vanumawi
p1096
sI1097
VayoXyA
p1097
sI1098
VbAga
p1098
sI1099
VbAvajUxa
p1099
sI1100
VbETe
p1100
sI1101
VbI
p1101
sI1102
VbOYrdara
p1102
sI1103
VbaDZawI
p1103
sI1104
VbaceM
p1104
sI1105
Vbanane
p1105
sI1106
VbiraMge
p1106
sI1107
VcAha
p1107
sI1108
VcIja
p1108
sI1109
VcalawA
p1109
sI1110
Vdabalina
p1110
sI1111
VdalahOjI
p1111
sI1112
VdiskAuMta
p1112
sI1113
VeriyA
p1113
sI1114
VeyaralAina
p1114
sI1115
VhAWoM
p1115
sI1116
VhOYla
p1116
sI1117
VharI
p1117
sI1118
VhinxU
p1118
sI1119
VhisAba
p1119
sI1120
VhissoM
p1120
sI1121
ViMdiyana
p1121
sI1122
Vinase
p1122
sI1123
VitEliyana
p1123
sI1124
VitalI
p1124
sI1125
VjAnI
p1125
sI1126
VjAnavara
p1126
sI1127
VjEsalamera
p1127
sI1128
VjUlarI
p1128
sI1129
Vjabarxaswa
p1129
sI1130
Vjanma
p1130
sI1131
VjilA
p1131
sI1132
VjinheM
p1132
sI1133
Vjisa
p1133
sI1134
VjyAxAwara
p1134
sI1135
VkIjie
p1135
sI1136
VkOYtana
p1136
sI1137
VkamAI
p1137
sI1138
VkapadZoM
p1138
sI1139
Vkapalsa
p1139
sI1140
VkarAne
p1140
sI1141
VkarAyA
p1141
sI1142
VkarodZa
p1142
sI1143
VkiwanA
p1143
sI1144
Vkrisamasa
p1144
sI1145
VlaMbe
p1145
sI1146
VlagI
p1146
sI1147
Vlagawe
p1147
sI1148
VluBAwA
p1148
sI1149
VmAXyama
p1149
sI1150
VmUrwi
p1150
sI1151
VmahArAjA
p1151
sI1152
VmahilAeM
p1152
sI1153
VmanAyA
p1153
sI1154
Vmanorama
p1154
sI1155
Vmela
p1155
sI1156
VmilA
p1156
sI1157
Vmilane
p1157
sI1158
Vmirika
p1158
sI1159
VmyUjika
p1159
sI1160
VnajAroM
p1160
sI1161
VnayA
p1161
sI1162
VnikalawI
p1162
sI1163
VpAI
p1163
sI1164
VpAne
p1164
sI1165
VpEkiMga
p1165
sI1166
VpI
p1166
sI1167
VpahuMcA
p1167
sI1168
VpahuMce
p1168
sI1169
VparaPekta
p1169
sI1170
VpatanI
p1170
sI1171
VpawWaroM
p1171
sI1172
VpraBAvaSAlI
p1172
sI1173
Vprawyeka
p1173
sI1174
VpreSara
p1174
sI1175
VpreraNA
p1175
sI1176
Vqwu
p1176
sI1177
VrAjasI
p1177
sI1178
VrAswoM
p1178
sI1179
VrUta
p1179
sI1180
Vraxxa
p1180
sI1181
VregiswAna
p1181
sI1182
VreswarAM
p1182
sI1183
VrijOYrta
p1183
sI1184
Vroja
p1184
sI1185
VruKa
p1185
sI1186
Vrupa
p1186
sI1187
VsIniyara
p1187
sI1188
VsIwA
p1188
sI1189
VsOMxarya
p1189
sI1190
VsWApanA
p1190
sI1191
VsaMrakRaNa
p1191
sI1192
VsaPZArI
p1192
sI1193
Vsahana
p1193
sI1194
VsamUha
p1194
sI1195
VseMta
p1195
sI1196
VskIma
p1196
sI1197
VskUbA
p1197
sI1198
VsmAraka
p1198
sI1199
Vsone
p1199
sI1200
VspOYta
p1200
sI1201
VsvacCa
p1201
sI1202
VtAima
p1202
sI1203
VtiPina
p1203
sI1204
VtrEka
p1204
sI1205
VusakA
p1205
sI1206
VvArRika
p1206
sI1207
VvErAitI
p1207
sI1208
VvIM
p1208
sI1209
VviBAga
p1209
sI1210
VviSiRta
p1210
sI1211
VvihAra
p1211
sI1212
VvismayakArI
p1212
sI1213
VwarIkA
p1213
sI1214
VwulanA
p1214
sI1215
VxUsarA
p1215
sI1216
VxabAva
p1216
sI1217
VxeMge
p1217
sI1218
VxenA
p1218
sI1219
VxisaMbara
p1219
sI1220
VxogunA
p1220
sI1221
VyaMwra
p1221
sI1222
VyakIna
p1222
sI1223
Vyaxi
p1223
sI1224
V16
p1224
sI1225
V200
p1225
sI1226
V24
p1226
sI1227
V27
p1227
sI1228
V500
p1228
sI1229
V55
p1229
sI1230
VAXA
p1230
sI1231
VAkASa
p1231
sI1232
VArakRiwa
p1232
sI1233
VAvaSyaka
p1233
sI1234
VAxi
p1234
sI1235
VAyojana
p1235
sI1236
VAyojiwa
p1236
sI1237
VGAtoM
p1237
sI1238
VI
sI1239
VIsta
p1238
sI1240
VOYpSaMsa
p1239
sI1241
VPEmilI
p1240
sI1242
VPOYresta
p1241
sI1243
VPana
p1242
sI1244
VPona
p1243
sI1245
VPrAMsa
p1244
sI1246
VSOkIna
p1245
sI1247
VSiKaroM
p1246
sI1248
VUMcA
p1247
sI1249
VUzcI
p1248
sI1250
VWIma
p1249
sI1251
VXarawI
p1250
sI1252
VXarmaSAlA
p1251
sI1253
VaMxarUnI
p1252
sI1254
VagalI
p1253
sI1255
Vagaswa
p1254
sI1256
VahamaxAbAxa
p1255
sI1257
Vakabara
p1256
sI1258
ValI
p1257
sI1259
VanumAna
p1258
sI1260
Varaba
p1259
sI1261
VbAriSa
p1260
sI1262
VbahumUlya
p1261
sI1263
VbajAya
p1262
sI1264
VbanAeM
p1263
sI1265
VbanAwe
p1264
sI1266
Vbarda
p1265
sI1267
VbaxalAva
p1266
sI1268
VbikrI
p1267
sI1269
VbiwA
p1268
sI1270
Vbreka
p1269
sI1271
Vbrija
p1270
sI1272
VcAheMge
p1271
sI1273
Vceka
p1272
sI1274
VciSwI
p1273
sI1275
VdOYlPina
p1274
sI1276
VedaveMcara
p1275
sI1277
VgAida
p1276
sI1278
VginA
p1277
sI1279
VglAidiMga
p1278
sI1280
VgrAhakoM
p1279
sI1281
VgrIRma
p1280
sI1282
Vgujara
p1281
sI1283
VhAI
p1282
sI1284
VhAM
p1283
sI1285
VhAive
p1284
sI1286
VhAlAzki
p1285
sI1287
VhExara
p1286
sI1288
VhOYlide
p1287
sI1289
VhaPwe
p1288
sI1290
VhanImUna
p1289
sI1291
VhariyAlI
p1290
sI1292
Vhilsa
p1291
sI1293
VhoMge
p1292
sI1294
ViMwajAra
p1293
sI1295
VimAraweM
p1294
sI1296
VjAxU
p1295
sI1297
VjEna
p1296
sI1298
VjEsA
p1297
sI1299
VjUsa
p1298
sI1300
Vjabaki
p1299
sI1301
VjetiMga
p1300
sI1302
Vjinake
p1301
sI1303
VjisakA
p1302
sI1304
VkEMpiMga
p1303
sI1305
VkEse
p1304
sI1306
VkOYmpleksa
p1305
sI1307
VkOYsmetiksa
p1306
sI1308
VkaMsarta
p1307
sI1309
Vkaba
p1308
sI1310
VkahAniyAM
p1309
sI1311
VkahawI
p1310
sI1312
VkalpanA
p1311
sI1313
VkarAwe
p1312
sI1314
VkaravA
p1313
sI1315
VkaregA
p1314
sI1316
VkiraNeM
p1315
sI1317
Vkisa
p1316
sI1318
VkiwanI
p1317
sI1319
Vkorala
p1318
sI1320
VkujIna
p1319
sI1321
VkumAUM
p1320
sI1322
Vkuxarawa
p1321
sI1323
VkyoM
p1322
sI1324
VlA
p1323
sI1325
VladZAI
p1324
sI1326
VlagAwAra
p1325
sI1327
Vlagane
p1326
sI1328
VlagegA
p1327
sI1329
Vlevala
p1328
sI1330
VlihAjA
p1329
sI1331
VluMbinI
p1330
sI1332
VmAmaloM
p1331
sI1333
VmAnanA
p1332
sI1334
VmAne
p1333
sI1335
VmAnie
p1334
sI1336
VmAra
p1335
sI1337
VmArgoM
p1336
sI1338
VmaMdala
p1337
sI1339
VmaMdapa
p1338
sI1340
VmaMwrI
p1339
sI1341
VmahAwmA
p1340
sI1342
VmahInoM
p1341
sI1343
Vmahawva
p1342
sI1344
VmarIna
p1343
sI1345
VmehamAnoM
p1344
sI1346
VmileMgI
p1345
sI1347
Vmohaka
p1346
sI1348
VmugaloM
p1347
sI1349
VmulAkAwa
p1348
sI1350
VmumbaI
p1349
sI1351
VnAga
p1350
sI1352
VnIle
p1351
sI1353
VnaMbara
p1352
sI1354
VnakSe
p1353
sI1355
Vnikata
p1354
sI1356
VnikobAra
p1355
sI1357
VnirBara
p1356
sI1358
VnivAsa
p1357
sI1359
VpAlana
p1358
sI1360
VpAyA
p1359
sI1361
VpEkejeja
p1360
sI1362
VpErAglAidiMga
p1361
sI1363
VpExala
p1362
sI1364
VpOXe
p1363
sI1365
VpOYiMta
p1364
sI1366
VpOrANika
p1365
sI1367
VpUCA
p1366
sI1368
VpadZawe
p1367
sI1369
VpahAdZiyAM
p1368
sI1370
Vpahala
p1369
sI1371
VpahaneM
p1370
sI1372
VpaloM
p1371
sI1373
VparaseMta
p1372
sI1374
VpraBAviwa
p1373
sI1375
VpraswAva
p1374
sI1376
VprawIka
p1375
sI1377
VpraxarSiwa
p1376
sI1378
Vpriya
p1377
sI1379
VpuRkara
p1378
sI1380
VpurANa
p1379
sI1381
VrAPtiMga
p1380
sI1382
VrAhawa
p1381
sI1383
VraKa
p1382
sI1384
VraKawI
p1383
sI1385
Vrahana
p1384
sI1386
Vreda
p1385
sI1387
VrestoreMta
p1386
sI1388
VroSanI
p1387
sI1389
Vrocaka
p1388
sI1390
VsADZe
p1389
sI1391
VsAMskqwika
p1390
sI1392
VsAXana
p1391
sI1393
VsAgara
p1392
sI1394
VsAuWa
p1393
sI1395
VsElAnI
p1394
sI1396
VsIXe
p1395
sI1397
VsO
p1396
sI1398
VsaMgamaramara
p1397
sI1399
VsaMparka
p1398
sI1400
VsakeMge
p1399
sI1401
VsamaJa
p1400
sI1402
Vsamarpiwa
p1401
sI1403
Vsamawala
p1402
sI1404
Vsammiliwa
p1403
sI1405
VsampUrNa
p1404
sI1406
VsarvAXika
p1405
sI1407
VsenA
p1406
sI1408
Vseta
p1407
sI1409
VskUla
p1408
sI1410
VsuhAvanA
p1409
sI1411
VsunA
p1410
sI1412
VsuniSciwa
p1411
sI1413
VtAMgoM
p1412
sI1414
VtEMka
p1413
sI1415
VtrEkiMga
p1414
sI1416
VulleKanIya
p1415
sI1417
Vunako
p1416
sI1418
VunameM
p1417
sI1419
Vusase
p1418
sI1420
VvApasa
p1419
sI1421
VvAxiyoM
p1420
sI1422
VvIikala
p1421
sI1423
VvIjA
p1422
sI1424
VvIkaeMda
p1423
sI1425
Vvanya
p1424
sI1426
VvarwamAna
p1425
sI1427
VviMda
p1426
sI1428
VviSeRa
p1427
sI1429
VviSrAma
p1428
sI1430
VviSvAsa
p1429
sI1431
VvimAnana
p1430
sI1432
VvqkRoM
p1431
sI1433
VwIrWasWAna
p1432
sI1434
VwaBI
p1433
sI1435
VwyohAra
p1434
sI1436
VxAma
p1435
sI1437
VxIvAroM
p1436
sI1438
VxarSanIya
p1437
sI1439
VxiKawA
p1438
sI1440
VxiSA
p1439
sI1441
Vxila
p1440
sI1442
VxqRti
p1441
sI1443
VxvAra
p1442
sI1444
VxvIpoM
p1443
sI1445
V3
sI1446
V35
p1444
sI1447
V400
p1445
sI1448
V70
p1446
sI1449
VAIlEMda
p1447
sI1450
VAbAxI
p1448
sI1451
VAbAxa
p1449
sI1452
VAbU
p1450
sI1453
VAeM
p1451
sI1454
VAgarA
p1452
sI1455
VAilEMda
p1453
sI1456
VAiriSa
p1454
sI1457
VAjAxI
p1455
sI1458
VAjakala
p1456
sI1459
VAkaRirwa
p1457
sI1460
VApane
p1458
sI1461
VArWika
p1459
sI1462
VAwaMkavAxI
p1460
sI1463
VAwmA
p1461
sI1464
VAya
p1462
sI1465
VBArawIyoM
p1463
sI1466
VBIwara
p1464
sI1467
VBOgolika
p1465
sI1468
VBU
p1466
sI1469
VBUla
p1467
sI1470
VBavana
p1468
sI1471
VDake
p1469
sI1472
VGAta
p1470
sI1473
VGUma
p1471
sI1474
VGaMtoM
p1472
sI1475
VItI
p1473
sI1476
VJIleM
p1474
sI1477
VJarane
p1475
sI1478
VKAsakara
p1476
sI1479
VKAse
p1477
sI1480
VKarIxane
p1478
sI1481
VKawarA
p1479
sI1482
VKewI
p1480
sI1483
VKuSabU
p1481
sI1484
VKulA
p1482
sI1485
VKyAla
p1483
sI1486
VPAiva
p1484
sI1487
VPArma
p1485
sI1488
VPElA
p1486
sI1489
VPIlda
p1487
sI1490
VPOYla
p1488
sI1491
VPUla
p1489
sI1492
VPlAitsa
p1490
sI1493
VPlora
p1491
sI1494
VPula
p1492
sI1495
VSOYpa
p1493
sI1496
VSikAra
p1494
sI1497
VSipa
p1495
sI1498
VSora
p1496
sI1499
VSreNI
p1497
sI1500
VSreRTa
p1498
sI1501
VTaMdI
p1499
sI1502
VUzcA
p1500
sI1503
VUzce
p1501
sI1504
VWerapista
p1502
sI1505
VWodZe
p1503
sI1506
VXErya
p1504
sI1507
VXuMXa
p1505
sI1508
VaBayAraNya
p1506
sI1509
VaMwima
p1507
sI1510
VaMxAja
p1508
sI1511
VacAnaka
p1509
sI1512
VaddA
p1510
sI1513
VanxamAna
p1511
sI1514
VapekRAkqwa
p1512
sI1515
VaromAWerapI
p1513
sI1516
VaruNAcala
p1514
sI1517
VavaXi
p1515
sI1518
Vawi
p1516
sI1519
Vawirikwa
p1517
sI1520
VawyaXika
p1518
sI1521
VbAMglAxeSa
p1519
sI1522
VbAgAnoM
p1520
sI1523
VbAwacIwa
p1521
sI1524
VbAweM
p1522
sI1525
VbAzXa
p1523
sI1526
VbEMkOYka
p1524
sI1527
VbIceja
p1525
sI1528
VbIwe
p1526
sI1529
VbaDZAne
p1527
sI1530
VbaccA
p1528
sI1531
VbarAbara
p1529
sI1532
VbawAeM
p1530
sI1533
VbawOra
p1531
sI1534
Vbaxale
p1532
sI1535
VbemisAla
p1533
sI1536
VbiMxI
p1534
sI1537
Vbijanesa
p1535
sI1538
VbilAsapura
p1536
sI1539
Vblada
p1537
sI1540
VboXagayA
p1538
sI1541
VbrAjIla
p1539
sI1542
VbuXxa
p1540
sI1543
VbyUtI
p1541
sI1544
VcAmbA
p1542
sI1545
VcAvala
p1543
sI1546
VcalA
p1544
sI1547
VcattAna
p1545
sI1548
VceharA
p1546
sI1549
VcennE
p1547
sI1550
VciwroM
p1548
sI1551
VcotI
p1549
sI1552
VcukI
p1550
sI1553
VdAMsa
p1551
sI1554
VdI
p1552
sI1555
Vdara
p1553
sI1556
VdeDZa
p1554
sI1557
VdestineSaMsa
p1555
sI1558
VdijAina
p1556
sI1559
VeWanika
p1557
sI1560
Veca
p1558
sI1561
VejeMtoM
p1559
sI1562
VekamAwra
p1560
sI1563
Vela
p1561
sI1564
VesosieSana
p1562
sI1565
Veyaraveja
p1563
sI1566
VgAMXI
p1564
sI1567
VgOrawalaba
p1565
sI1568
VgaIM
p1566
sI1569
VgaMBIra
p1567
sI1570
VgarmiyoM
p1568
sI1571
Vgema
p1569
sI1572
Vglobala
p1570
sI1573
VgolPa
p1571
sI1574
VguPAoM
p1572
sI1575
VgulAbI
p1573
sI1576
Vguru
p1574
sI1577
VhEMda
p1575
sI1578
VhErAnI
p1576
sI1579
VhajAroM
p1577
sI1580
VhamArI
p1578
sI1581
VhanumAna
p1579
sI1582
VhareBare
p1580
sI1583
Vhotalsa
p1581
sI1584
ViMglEMda
p1582
sI1585
VijAPA
p1583
sI1586
VilAkoM
p1584
sI1587
VinakAra
p1585
sI1588
VinakI
p1586
sI1589
VjAKU
p1587
sI1590
VjAegI
p1588
sI1591
VjAwi
p1589
sI1592
VjFAna
p1590
sI1593
VjIvaMwa
p1591
sI1594
VjIwa
p1592
sI1595
VjaMgalI
p1593
sI1596
VjamI
p1594
sI1597
Vjamakara
p1595
sI1598
VjarA
p1596
sI1599
Vjela
p1597
sI1600
VjinhoMne
p1598
sI1601
VjiwanI
p1599
sI1602
Vjiwane
p1600
sI1603
VjoKAMga
p1601
sI1604
Vjona
p1602
sI1605
Vjora
p1603
sI1606
VkAna
p1604
sI1607
VkAnoM
p1605
sI1608
VkEMdI
p1606
sI1609
VkImawa
p1607
sI1610
VkOYla
p1608
sI1611
VkOYraporeta
p1609
sI1612
VkOna
p1610
sI1613
VkaMPartebala
p1611
sI1614
Vkahane
p1612
sI1615
Vkamajora
p1613
sI1616
VkarAwA
p1614
sI1617
VkarAwI
p1615
sI1618
VkaravAne
p1616
sI1619
VkaregI
p1617
sI1620
VkarnAtaka
p1618
sI1621
VkarodZoM
p1619
sI1622
VkiwAbeM
p1620
sI1623
Vkiye
p1621
sI1624
VkoSiSeM
p1622
sI1625
VkolaMbo
p1623
sI1626
VkotaxvAra
p1624
sI1627
VkqpAoM
p1625
sI1628
VkrIdZAoM
p1626
sI1629
VkrUja
p1627
sI1630
Vkreja
p1628
sI1631
VkuMBa
p1629
sI1632
VkullU
p1630
sI1633
VkumBa
p1631
sI1634
VlAita
p1632
sI1635
VlIjie
p1633
sI1636
VlaMbA
p1634
sI1637
VlagAe
p1635
sI1638
VlambI
p1636
sI1639
VleMge
p1637
sI1640
VliKane
p1638
sI1641
Vlipastika
p1639
sI1642
Vlista
p1640
sI1643
VmAM
p1641
sI1644
VmAlika
p1642
sI1645
VmAno
p1643
sI1646
VmArketa
p1644
sI1647
VmEnejara
p1645
sI1648
VmOjUxA
p1646
sI1649
VmOke
p1647
sI1650
VmaCalI
p1648
sI1651
VmaCaliyoM
p1649
sI1652
VmaMjila
p1650
sI1653
VmahaMgA
p1651
sI1654
VmahaMgI
p1652
sI1655
VmanA
p1653
sI1656
VmanAnA
p1654
sI1657
Vmanohara
p1655
sI1658
VmanoraMjana
p1656
sI1659
Vmele
p1657
sI1660
VmerA
p1658
sI1661
VmilAkara
p1659
sI1662
VmilanA
p1660
sI1663
Vmilawe
p1661
sI1664
Vmile
p1662
sI1665
Vmisa
p1663
sI1666
VmobAila
p1664
sI1667
Vmoha
p1665
sI1668
VmukweSvara
p1666
sI1669
VnAgarikoM
p1667
sI1670
VnAgoA
p1668
sI1671
VnEnA
p1669
sI1672
VnO
p1670
sI1673
VnOYna
p1671
sI1674
VnOYrWa
p1672
sI1675
VnOkA
p1673
sI1676
VnajZara
p1674
sI1677
VnamUnA
p1675
sI1678
VnanxI
p1676
sI1679
Vnavambara
p1677
sI1680
VnaxiyAM
p1678
sI1681
VnaxiyAz
p1679
sI1682
Vnepalasa
p1680
sI1683
VnijI
p1681
sI1684
Vniyamiwa
p1682
sI1685
VnyU
p1683
sI1686
VpA
p1684
sI1687
VpEra
p1685
sI1688
VpUjA
p1686
sI1689
VpUla
p1687
sI1690
VpUrNa
p1688
sI1691
VpaMjAba
p1689
sI1692
VpaNajI
p1690
sI1693
VpaTAnakota
p1691
sI1694
Vpablika
p1692
sI1695
VpadZe
p1693
sI1696
VparaPOYrma
p1694
sI1697
Vparivarwiwa
p1695
sI1698
VpariveSa
p1696
sI1699
VparvawArohaNa
p1697
sI1700
VparvawoM
p1698
sI1701
VplAniMga
p1699
sI1702
Vpola
p1700
sI1703
Vpolo
p1701
sI1704
VprAiveta
p1702
sI1705
VprayAga
p1703
sI1706
VprayAsa
p1704
sI1707
VpremiyoM
p1705
sI1708
VpyAra
p1706
sI1709
VrAjAoM
p1707
sI1710
VrAmeSvarama
p1708
sI1711
VrAnI
p1709
sI1712
VrOYyala
p1710
sI1713
VraKI
p1711
sI1714
VraMgoM
p1712
sI1715
VraNaWaMBOra
p1713
sI1716
VregiswAnI
p1714
sI1717
VresiMga
p1715
sI1718
Vresta
p1716
sI1719
VrilEksa
p1717
sI1720
Vrisarca
p1718
sI1721
Vropa
p1719
sI1722
Vrukane
p1720
sI1723
VrumAnI
p1721
sI1724
VsAhiba
p1722
sI1725
VsAikaliMga
p1723
sI1726
VsAnAsara
p1724
sI1727
VsAre
p1725
sI1728
VsEMkcuarI
p1726
sI1729
VsEnika
p1727
sI1730
VsImiwa
p1728
sI1731
VsOnxarya
p1729
sI1732
VsaByawA
p1730
sI1733
VsaMbaMXa
p1731
sI1734
VsaMgrahAlaya
p1732
sI1735
VsaMracanA
p1733
sI1736
VsaPArI
p1734
sI1737
Vsahiwa
p1735
sI1738
VsalIma
p1736
sI1739
VsamaJane
p1737
sI1740
VsamarU
p1738
sI1741
VsamasyA
p1739
sI1742
Vsamete
p1740
sI1743
Vsammilana
p1741
sI1744
VsarasvawI
p1742
sI1745
Vsarkala
p1743
sI1746
Vsaswe
p1744
sI1747
VsavAla
p1745
sI1748
VsavArI
p1746
sI1749
VseSana
p1747
sI1750
Vsehawa
p1748
sI1751
VseliMga
p1749
sI1752
VsevAoM
p1750
sI1753
VsiMgApura
p1751
sI1754
Vsikkima
p1752
sI1755
VskI
p1753
sI1756
VskOYtalEMda
p1754
sI1757
VsnEksa
p1755
sI1758
VsnoPOYla
p1756
sI1759
VstUdeMtsa
p1757
sI1760
Vsunxara
p1758
sI1761
VsuviXAez
p1759
sI1762
VsvAxa
p1760
sI1763
Vsvarga
p1761
sI1764
VtAimsa
p1762
sI1765
VteMpala
p1763
sI1766
VtrAMjEkSana
p1764
sI1767
VtrEPika
p1765
sI1768
VtriyA
p1766
sI1769
Vucca
p1767
sI1770
Vunase
p1768
sI1771
Vuwarane
p1769
sI1772
Vuwpanna
p1770
sI1773
VuwwarAKaMda
p1771
sI1774
VuwwarI
p1772
sI1775
VuxyAnoM
p1773
sI1776
VvAildalAiPa
p1774
sI1777
VvAswuSAswra
p1775
sI1778
VvAswukalA
p1776
sI1779
VvAtara
p1777
sI1780
VvESvika
p1778
sI1781
VvIkeMda
p1779
sI1782
VvaranA
p1780
sI1783
VvaswuoM
p1781
sI1784
Vvejiteriyana
p1782
sI1785
Vvesta
p1783
sI1786
VvhIlsa
p1784
sI1787
VviSeRawA
p1785
sI1788
VviSvaswarIya
p1786
sI1789
VvicAra
p1787
sI1790
Vviswqwa
p1788
sI1791
VwIrWayAwrA
p1789
sI1792
VwahasIla
p1790
sI1793
VwatIya
p1791
sI1794
Vwela
p1792
sI1795
VxAmoM
p1793
sI1796
VxOra
p1794
sI1797
VxUXa
p1795
sI1798
VxakRiNI
p1796
sI1799
VxaravAjA
p1797
sI1800
VxavAiyAM
p1798
sI1801
VxegI
p1799
sI1802
VxevaxAra
p1800
sI1803
VximAga
p1801
sI1804
Vxisambara
p1802
sI1805
VxobArA
p1803
sI1806
VyU
p1804
sI1807
VyUke
p1805
sI1808
VyUropiyana
p1806
sI1809
Vyiara
p1807
sI1810
V02
p1808
sI1811
V11
p1809
sI1812
V150
p1810
sI1813
V1500
p1811
sI1814
V16vIM
p1812
sI1815
V1961
p1813
sI1816
V2009
p1814
sI1817
V21
p1815
sI1818
V26
p1816
sI1819
V29
p1817
sI1820
V310
p1818
sI1821
V32
p1819
sI1822
V350
p1820
sI1823
V750
p1821
sI1824
V8
sI1825
V800
p1822
sI1826
V9
sI1827
V90
p1823
sI1828
VAMKa
p1824
sI1829
VAMXrapraxeSa
p1825
sI1830
VAScaryoM
p1826
sI1831
VATa
p1827
sI1832
VAXe
p1828
sI1833
VAegI
p1829
sI1834
VAijavAla
p1830
sI1835
VAjAxa
p1831
sI1836
VAkarRaNoM
p1832
sI1837
VAmaxanI
p1833
sI1838
VApase
p1834
sI1839
VArAmaxAyaka
p1835
sI1840
VAraMBika
p1836
sI1841
VArtista
p1837
sI1842
VAvAja
p1838
sI1843
VAvaSyakawA
p1839
sI1844
VAxivAsI
p1840
sI1845
VAyaPila
p1841
sI1846
VBUKa
p1842
sI1847
VBarane
p1843
sI1848
VBarosA
p1844
sI1849
VBavyawA
p1845
sI1850
VBugawAna
p1846
sI1851
VCavi
p1847
sI1852
VCedZaCAdZa
p1848
sI1853
VCodZakara
p1849
sI1854
VDAI
p1850
sI1855
VDakI
p1851
sI1856
VGAsa
p1852
sI1857
VGAte
p1853
sI1858
VGAtiyoM
p1854
sI1859
VGUmanA
p1855
sI1860
VGUmawI
p1856
sI1861
VGUmeM
p1857
sI1862
VGatanAoM
p1858
sI1863
VGire
p1859
sI1864
VGoGalA
p1860
sI1865
VGoRiwa
p1861
sI1866
VGudZasavArI
p1862
sI1867
VGumakkadZoM
p1863
sI1868
VIMXana
p1864
sI1869
VKAeM
p1865
sI1870
VKAlI
p1866
sI1871
VKabara
p1867
sI1872
VKajAne
p1868
sI1873
VKaware
p1869
sI1874
VKelane
p1870
sI1875
VKilAPa
p1871
sI1876
VKola
p1872
sI1877
VKuSI
p1873
sI1878
VOYlI
p1874
sI1879
VOYparetarsa
p1875
sI1880
VOYrovile
p1876
sI1881
VOYstriyA
p1877
sI1882
VOYyala
p1878
sI1883
VOlI
p1879
sI1884
VPESana
p1880
sI1885
VPIsa
p1881
sI1886
VPala
p1882
sI1887
VPaloM
p1883
sI1888
VPevarita
p1884
sI1889
VPiSiMga
p1885
sI1890
VPilmoM
p1886
sI1891
VPlAiMga
p1887
sI1892
VPorta
p1888
sI1893
VPoto
p1889
sI1894
VPreMdsa
p1890
sI1895
VSAhI
p1891
sI1896
VSAha
p1892
sI1897
VSAsana
p1893
sI1898
VSEla
p1894
sI1899
VSOkInoM
p1895
sI1900
VSabxa
p1896
sI1901
VSabxoM
p1897
sI1902
VSaharI
p1898
sI1903
VSarAbe
p1899
sI1904
VSela
p1900
sI1905
VSikAyawa
p1901
sI1906
VSrInagara
p1902
sI1907
VSraxXAlu
p1903
sI1908
VSrqMKalA
p1904
sI1909
VTahara
p1905
sI1910
VWAI
p1906
sI1911
VXAmirka
p1907
sI1912
VXArAez
p1908
sI1913
VaMwa
p1909
sI1914
VaMwargawa
p1910
sI1915
VaNdamAna
p1911
sI1916
VaSoka
p1912
sI1917
VaXiBAra
p1913
sI1918
VajAyabaGara
p1914
sI1919
VakelA
p1915
sI1920
VakwUbara
p1916
sI1921
ValArma
p1917
sI1922
VamarAvawI
p1918
sI1923
VanUTA
p1919
sI1924
VanoKA
p1920
sI1925
VarAvalI
p1921
sI1926
VaraMbola
p1922
sI1927
VarabiMxo
p1923
sI1928
Vasama
p1924
sI1929
VatrEkSana
p1925
sI1930
VavaSeRa
p1926
sI1931
VawIwa
p1927
sI1932
VawulanIya
p1928
sI1933
VbAharI
p1929
sI1934
VbAikiMga
p1930
sI1935
VbEgsa
p1931
sI1936
VbIcoM
p1932
sI1937
VbIcoMbIca
p1933
sI1938
VbOYlivuda
p1934
sI1939
VbOYtala
p1935
sI1940
VbaDZane
p1936
sI1941
VbaDZawe
p1937
sI1942
VbacAne
p1938
sI1943
Vbaca
p1939
sI1944
Vbace
p1940
sI1945
VbahAxura
p1941
sI1946
VbahawI
p1942
sI1947
VbanAI
p1943
sI1948
VbarPabArI
p1944
sI1949
Vbaragaxa
p1945
sI1950
Vbarawane
p1946
sI1951
VbasoM
p1947
sI1952
Vbaxalawe
p1948
sI1953
VberInAga
p1949
sI1954
Vbevareja
p1950
sI1955
VbijI
p1951
sI1956
VboXa
p1952
sI1957
VboXi
p1953
sI1958
VbotiMga
p1954
sI1959
VbrAMda
p1955
sI1960
VbrahmA
p1956
sI1961
Vbritena
p1957
sI1962
VcAMsa
p1958
sI1963
VcAMxa
p1959
sI1964
VcAla
p1960
sI1965
VcAlakoM
p1961
sI1966
VcAxara
p1962
sI1967
VcaDZAva
p1963
sI1968
VcaDZane
p1964
sI1969
VcaMdIgaDZa
p1965
sI1970
VcaMxa
p1966
sI1971
VcalAne
p1967
sI1972
VcalanA
p1968
sI1973
Vcale
p1969
sI1974
VcaraNa
p1970
sI1975
VcattAnI
p1971
sI1976
Vcekaapa
p1972
sI1977
VceyaramEna
p1973
sI1978
VciMwA
p1974
sI1979
Vcinhiwa
p1975
sI1980
VciwrakArI
p1976
sI1981
VcotiyoM
p1977
sI1982
VcukAnA
p1978
sI1983
VcunA
p1979
sI1984
VcuneM
p1980
sI1985
VdAlA
p1981
sI1986
VdAyarektara
p1982
sI1987
Vde
p1983
sI1988
VdihAidreSana
p1984
sI1989
VeMtaratenameMta
p1985
sI1990
VeMtrI
p1986
sI1991
VedavAMsa
p1987
sI1992
Vedavarda
p1988
sI1993
Veja
p1989
sI1994
VekstrA
p1990
sI1995
Vekveriyama
p1991
sI1996
Velpsa
p1992
sI1997
VetalAMtika
p1993
sI1998
VgAMvoM
p1994
sI1999
VgAdiyoM
p1995
sI2000
VgAzva
p1996
sI2001
VgAzvoM
p1997
sI2002
VgaTajodZa
p1998
sI2003
VgaharAI
p1999
sI2004
Vgawi
p2000
sI2005
VgawiviXiyoM
p2001
sI2006
VgayI
p2002
sI2007
Vgeta
p2003
sI2008
Vgira
p2004
sI2009
VgirajAGara
p2005
sI2010
VglAsa
p2006
sI2011
VgovadZA
p2007
sI2012
Vgoyala
p2008
sI2013
VguPAez
p2009
sI2014
VgujarAwa
p2010
sI2015
VguvAhAtI
p2011
sI2016
VhAWI
p2012
sI2017
VhAWiyoM
p2013
sI2018
VhAlAwa
p2014
sI2019
VhAsila
p2015
sI2020
VhEMga
p2016
sI2021
VhOYta
p2017
sI2022
VhaPwoM
p2018
sI2023
VhariyANA
p2019
sI2024
VhasIna
p2020
sI2025
VhaswaSilpa
p2021
sI2026
Vhatakara
p2022
sI2027
Vhaxa
p2023
sI2028
Vheda
p2024
sI2029
VhiMxU
p2025
sI2030
VhiMxuswAnI
p2026
sI2031
Vhimanaxa
p2027
sI2032
Vhoma
p2028
sI2033
ViSArA
p2029
sI2034
VikalOwA
p2030
sI2035
VinPrAstrakcara
p2031
sI2036
Vinakama
p2032
sI2037
VislAmI
p2033
sI2038
VislAmika
p2034
sI2039
VjAdZe
p2035
sI2040
VjAnanA
p2036
sI2041
VjAnavaroM
p2037
sI2042
VjIpa
p2038
sI2043
VjIva
p2039
sI2044
VjOYna
p2040
sI2045
VjaPara
p2041
sI2046
VjalamArga
p2042
sI2047
VjanawA
p2043
sI2048
Vjannawa
p2044
sI2049
VjarUrawoM
p2045
sI2050
VjarmanI
p2046
sI2051
Vjarmana
p2047
sI2052
Vjeba
p2048
sI2053
Vjemsa
p2049
sI2054
VjiMjara
p2050
sI2055
Vjima
p2051
sI2056
VjimmexArI
p2052
sI2057
Vjina
p2053
sI2058
VjisakI
p2054
sI2059
VjoMga
p2055
sI2060
VjoSa
p2056
sI2061
VjoXapura
p2057
sI2062
VjodZane
p2058
sI2063
VjukAma
p2059
sI2064
VkATagoxAma
p2060
sI2065
VkArIgaroM
p2061
sI2066
VkAraNoM
p2062
sI2067
VkArya
p2063
sI2068
VkAryakalApa
p2064
sI2069
VkAyaro
p2065
sI2070
VkEmarA
p2066
sI2071
VkOYksa
p2067
sI2072
VkOYmidI
p2068
sI2073
VkOYraporeSana
p2069
sI2074
VkOYrka
p2070
sI2075
VkOYteja
p2071
sI2076
VkaMpyUtara
p2072
sI2077
VkaMtrola
p2073
sI2078
VkaWA
p2074
sI2079
VkahAnI
p2075
sI2080
VkahI
p2076
sI2081
VkalAwmaka
p2077
sI2082
VkamarA
p2078
sI2083
VkarAI
p2079
sI2084
VkaraMsI
p2080
sI2085
VkaravAeM
p2081
sI2086
Vkare
p2082
sI2087
VkarmacAriyoM
p2083
sI2088
VkarnAlA
p2084
sI2089
Vkarnala
p2085
sI2090
VkaroM
p2086
sI2091
Vkavara
p2087
sI2092
Vkavi
p2088
sI2093
VkawAroM
p2089
sI2094
Vkebala
p2090
sI2095
Vkeela
p2091
sI2096
Vkempe
p2092
sI2097
VkenxrIya
p2093
sI2098
VkiMga
p2094
sI2099
VkiloM
p2095
sI2100
VkimI.
p2096
sI2101
VkiwAba
p2097
sI2102
VklAiMbiMga
p2098
sI2103
Vklaba
p2099
sI2104
Vkorsa
p2100
sI2105
Vkostara
p2101
sI2106
VkrU
p2102
sI2107
VkrejI
p2103
sI2108
Vkriketara
p2104
sI2109
VkuttanAdZa
p2105
sI2110
VkvAlAlaMpura
p2106
sI2111
VlAgU
p2107
sI2112
VlUja
p2108
sI2113
VlaKanaU
p2109
sI2114
VlaMbAI
p2110
sI2115
VladZakiyAM
p2111
sI2116
VlagUna
p2112
sI2117
VlageMge
p2113
sI2118
VlaharoM
p2114
sI2119
VlakRya
p2115
sI2120
Vlavarsa
p2116
sI2121
VlenA
p2117
sI2122
Vleta
p2118
sI2123
Vlo
p2119
sI2124
Vloka
p2120
sI2125
VluBAvane
p2121
sI2126
VluBAwe
p2122
sI2127
VmAGa
p2123
sI2128
VmAnava
p2124
sI2129
VmAnawe
p2125
sI2130
VmAuMta
p2126
sI2131
VmAuMtena
p2127
sI2132
VmITe
p2128
sI2133
VmOYnasUna
p2129
sI2134
VmUda
p2130
sI2135
VmUrwiyoM
p2131
sI2136
VmaMwra
p2132
sI2137
VmaNikaraNa
p2133
sI2138
VmahABArawa
p2134
sI2139
VmahArAjAoM
p2135
sI2140
VmahaMge
p2136
sI2141
VmahaloM
p2137
sI2142
Vmahowsava
p2138
sI2143
VmanAe
p2139
sI2144
Vmanamohaka
p2140
sI2145
VmeGAlaya
p2141
sI2146
Vmedikala
p2142
sI2147
Vmehanawa
p2143
sI2148
Vmemoriyala
p2144
sI2149
VmeraTa
p2145
sI2150
VmisAla
p2146
sI2151
Vmiswra
p2147
sI2152
VmodZa
p2148
sI2153
VmohapASa
p2149
sI2154
Vmomoja
p2150
sI2155
Vmotara
p2151
sI2156
VmuMha
p2152
sI2157
VmusalamAnoM
p2153
sI2158
Vmuslima
p2154
sI2159
Vmuxxe
p2155
sI2160
VnAmaka
p2156
sI2161
VnAriyala
p2157
sI2162
VnAva
p2158
sI2163
VnEcarala
p2159
sI2164
Vnahara
p2160
sI2165
VnavaBArawa
p2161
sI2166
VneSanala
p2162
sI2167
Vnecarala
p2163
sI2168
VniSAnA
p2164
sI2169
Vnigama
p2165
sI2170
VnihAra
p2166
sI2171
VnihArane
p2167
sI2172
VnikalA
p2168
sI2173
VnirNaya
p2169
sI2174
VoraCA
p2170
sI2175
VpAnIpawa
p2171
sI2176
VpAraMparika
p2172
sI2177
VpAzca
p2173
sI2178
VpEMtsa
p2174
sI2179
VpEkijoM
p2175
sI2180
VpEmAne
p2176
sI2181
VpErAseliMga
p2177
sI2182
VpEraMtsa
p2178
sI2183
VpEroM
p2179
sI2184
VpUCane
p2180
sI2185
VpaSuoM
p2181
sI2186
VpadZAva
p2182
sI2187
VpadZI
p2183
sI2188
VpahAdZiyAz
p2184
sI2189
VpahuMcawe
p2185
sI2190
VparIkRA
p2186
sI2191
VparaMparA
p2187
sI2192
Vparaheja
p2188
sI2193
VparamparA
p2189
sI2194
VpareSAnI
p2190
sI2195
Vparisajjiwa
p2191
sI2196
VparivAra
p2192
sI2197
Vparivarwana
p2193
sI2198
VpeMtiMgsa
p2194
sI2199
VpirAmida
p2195
sI2200
VplIja
p2196
sI2201
Vplena
p2197
sI2202
VprArWanA
p2198
sI2203
VprOYblama
p2199
sI2204
VpraBAva
p2200
sI2205
VpraNAlI
p2201
sI2206
VpraPeSanala
p2202
sI2207
VpraXAnamaMwrI
p2203
sI2208
VpracurawA
p2204
sI2209
VprajAwiyAM
p2205
sI2210
VprakASa
p2206
sI2211
VprawiSawa
p2207
sI2212
VprejidaMta
p2208
sI2213
Vpula
p2209
sI2214
VrARtrapawi
p2210
sI2215
VrAjavaMSa
p2211
sI2216
VrAya
p2212
sI2217
VraKakara
p2213
sI2218
VraKe
p2214
sI2219
VraMgabiraMgI
p2215
sI2220
VraPwAra
p2216
sI2221
VrahanA
p2217
sI2222
VrahasyamayI
p2218
sI2223
VraheMge
p2219
sI2224
VrahegI
p2220
sI2225
Vrakama
p2221
sI2226
VreKA
p2222
sI2227
VreswarAoM
p2223
sI2228
Vrijarva
p2224
sI2229
Vrivara
p2225
sI2230
Vroda
p2226
sI2231
VrohawAMga
p2227
sI2232
VrojAnA
p2228
sI2233
Vroka
p2229
sI2234
VromAMtika
p2230
sI2235
VromEMtika
p2231
sI2236
Vromana
p2232
sI2237
VsAMda
p2233
sI2238
VsAMsa
p2234
sI2239
VsAhasa
p2235
sI2240
VsAita
p2236
sI2241
VsAitsa
p2237
sI2242
VsAmanA
p2238
sI2243
VsArA
p2239
sI2244
VsAvaXAnI
p2240
sI2245
VsAvaXAna
p2241
sI2246
VsEMda
p2242
sI2247
VsErasapAte
p2243
sI2248
VsIkarI
p2244
sI2249
VsUcI
p2245
sI2250
VsUryAswa
p2246
sI2251
VsUxiMga
p2247
sI2252
VsaMBalakara
p2248
sI2253
VsaMcAliwa
p2249
sI2254
VsaMkula
p2250
sI2255
VsaPala
p2251
sI2256
VsaPexa
p2252
sI2257
Vsacamuca
p2253
sI2258
Vsahejakara
p2254
sI2259
Vsaje
p2255
sI2260
VsamAXi
p2256
sI2261
VsamApwa
p2257
sI2262
VsamaJA
p2258
sI2263
VsamaJOwA
p2259
sI2264
Vsamewa
p2260
sI2265
VsamrAta
p2261
sI2266
Vsamuxa
p2262
sI2267
VsapanA
p2263
sI2268
Vsapane
p2264
sI2269
VsarPiMga
p2265
sI2270
VsarPinga
p2266
sI2271
VsariskA
p2267
sI2272
VsarvaSreRTa
p2268
sI2273
Vsarve
p2269
sI2274
VsaxiyoM
p2270
sI2275
VsekaMda
p2271
sI2276
VselA
p2272
sI2277
VsidanI
p2273
sI2278
VsitijaMsa
p2274
sI2279
VsixXArWa
p2275
sI2280
VskUtara
p2276
sI2281
VsketiMga
p2277
sI2282
VskyUbA
p2278
sI2283
VsmokiMga
p2279
sI2284
Vsneka
p2280
sI2285
VsnorakeliMga
p2281
sI2286
VsolAMga
p2282
sI2287
VspOYtsa
p2283
sI2288
Vsrowa
p2284
sI2289
VstAra
p2285
sI2290
VstOYpa
p2286
sI2291
Vsteta
p2287
sI2292
VstrIta
p2288
sI2293
VsunaharA
p2289
sI2294
VsurakaMdA
p2290
sI2295
Vsuramya
p2291
sI2296
VsuviXAoM
p2292
sI2297
VsvAmiwva
p2293
sI2298
VsvimiMga
p2294
sI2299
VswUpa
p2295
sI2300
VtAMga
p2296
sI2301
VtAigara
p2297
sI2302
VtIle
p2298
sI2303
VtIvI
p2299
sI2304
VtOYvala
p2300
sI2305
VtOYvara
p2301
sI2306
VtUristsa
p2302
sI2307
Vtebala
p2303
sI2308
Vteka
p2304
sI2309
VtikatoM
p2305
sI2310
Vtipsa
p2306
sI2311
VtrEvalarsa
p2307
sI2312
VtrItameMta
p2308
sI2313
VtrItameMtsa
p2309
sI2314
VtradiSanala
p2310
sI2315
VtreMda
p2311
sI2316
Vtripsa
p2312
sI2317
VuTAkara
p2313
sI2318
VuTAne
p2314
sI2319
VuTAyA
p2315
sI2320
VuTa
p2316
sI2321
Vubarane
p2317
sI2322
VudZIsA
p2318
sI2323
Vupayoga
p2319
sI2324
Vusane
p2320
sI2325
VuwAra
p2321
sI2326
VuwanA
p2322
sI2327
VuwsukawA
p2323
sI2328
VvAswava
p2324
sI2329
VvAswavika
p2325
sI2330
VvElI
p2326
sI2331
VvOYciMga
p2327
sI2332
VvOYra
p2328
sI2333
VvahI
p2329
sI2334
VvargIkqwa
p2330
sI2335
Vvarga
p2331
sI2336
Vveja
p2332
sI2337
Vvelanesa
p2333
sI2338
Vvena
p2334
sI2339
VviKyAwa
p2335
sI2340
VviMtara
p2336
sI2341
VviSeRawaH
p2337
sI2342
VvijFAna
p2338
sI2343
Vvijita
p2339
sI2344
Vvileja
p2340
sI2345
VviswAra
p2341
sI2346
VvivAxa
p2342
sI2347
VviviXawA
p2343
sI2348
VvqMxAvana
p2344
sI2349
VvqkRa
p2345
sI2350
VvyU
p2346
sI2351
VwAkawa
p2347
sI2352
VwArIPa
p2348
sI2353
VwInoM
p2349
sI2354
VwIrWasWala
p2350
sI2355
VwabIyawa
p2351
sI2356
VwakalIPa
p2352
sI2357
VwamilanAdu
p2353
sI2358
VwarIke
p2354
sI2359
Vwarja
p2355
sI2360
VwatoM
p2356
sI2361
VwibbawiyoM
p2357
sI2362
VxAyeM
p2358
sI2363
VxIjie
p2359
sI2364
VxUrabIna
p2360
sI2365
VxUsaroM
p2361
sI2366
VxalAI
p2362
sI2367
VxaroM
p2363
sI2368
VxarrA
p2364
sI2369
VxeKiye
p2365
sI2370
VxiKane
p2366
sI2371
Vxikkawa
p2367
sI2372
Vxoswa
p2368
sI2373
VxqSyoM
p2369
sI2374
VxuXavA
p2370
sI2375
VxurgA
p2371
sI2376
Vxuruswa
p2372
sI2377
VyAwrAoM
p2373
sI2378
VyUM
p2374
sI2379
VyUnesko
p2375
sI2380
VyajFa
p2376
sI2381
Vyukwa
p2377
sI2382
V024
p2378
sI2383
V100
p2379
sI2384
V1000
p2380
sI2385
V110
p2381
sI2386
V11vIM
p2382
sI2387
V135
p2383
sI2388
V17
p2384
sI2389
V18vIM
p2385
sI2390
V2000
p2386
sI2391
V2013
p2387
sI2392
V2194
p2388
sI2393
V22
p2389
sI2394
V23veM
p2390
sI2395
V240
p2391
sI2396
V250
p2392
sI2397
V360
p2393
sI2398
V440
p2394
sI2399
V5000
p2395
sI2400
V52
p2396
sI2401
V54
p2397
sI2402
V58
p2398
sI2403
V600
p2399
sI2404
V65
p2400
sI2405
V82
p2401
sI2406
V85
p2402
sI2407
V96
p2403
sI2408
VAMXra
p2404
sI2409
VAMkadZoM
p2405
sI2410
VASaMkA
p2406
sI2411
VASrama
p2407
sI2412
VAXAriwa
p2408
sI2413
VAXI
p2409
sI2414
VAcCAxiwa
p2410
sI2415
VAeMge
p2411
sI2416
VAegA
p2412
sI2417
VAibroja
p2413
sI2418
VAideMtitI
p2414
sI2419
VAkAra
p2415
sI2420
VAkirtekta
p2416
sI2421
VAkqwiyoM
p2417
sI2422
VAlISAna
p2418
sI2423
VAraMBa
p2419
sI2424
VArkaRaNa
p2420
sI2425
VArohI
p2421
sI2426
VArohiyoM
p2422
sI2427
VArtiPiSala
p2423
sI2428
VAvAsoM
p2424
sI2429
VAxaraNIya
p2425
sI2430
VAyI
p2426
sI2431
VAyarapawwA
p2427
sI2432
VAyurvexika
p2428
sI2433
VAzKoM
p2429
sI2434
VBA
p2430
sI2435
VBARA
p2431
sI2436
VBAdZa
p2432
sI2437
VBAgA
p2433
sI2438
VBAlukapOYnga
p2434
sI2439
VBAva
p2435
sI2440
VBUlawA
p2436
sI2441
VBUwakAla
p2437
sI2442
VBakwoM
p2438
sI2443
VBaviRya
p2439
sI2444
VBejA
p2440
sI2445
VBiwwI
p2441
sI2446
VBojana
p2442
sI2447
VBugawanA
p2443
sI2448
VBulA
p2444
sI2449
VBulAe
p2445
sI2450
VCUwI
p2446
sI2451
VCUwe
p2447
sI2452
VCaH
p2448
sI2453
VCatA
p2449
sI2454
VCatane
p2450
sI2455
VCawarI
p2451
sI2456
VCipe
p2452
sI2457
VCodZa
p2453
sI2458
VCodZane
p2454
sI2459
VCuttI
p2455
sI2460
VDakA
p2456
sI2461
VDalAnoM
p2457
sI2462
VDeroM
p2458
sI2463
VEMda
p2459
sI2464
VEMgalsa
p2460
sI2465
VEktivitIja
p2461
sI2466
VEktrisa
p2462
sI2467
VEnimeSana
p2463
sI2468
VErosportsa
p2464
sI2469
VGAtiyAM
p2465
sI2470
VGUmakara
p2466
sI2471
VGUmawe
p2467
sI2472
VGaMtI
p2468
sI2473
VGadZI
p2469
sI2474
VGatAne
p2470
sI2475
VGatanA
p2471
sI2476
VGirI
p2472
sI2477
VGoRaNA
p2473
sI2478
VGodZoM
p2474
sI2479
VGumakkadZI
p2475
sI2480
VISvara
p2476
sI2481
VIsAI
p2477
sI2482
VIva
p2478
sI2483
VJUmane
p2479
sI2484
VJelanA
p2480
sI2485
VKA
p2481
sI2486
VKAmiyAjA
p2482
sI2487
VKAna
p2483
sI2488
VKAnapAna
p2484
sI2489
VKAsiyawa
p2485
sI2490
VKAwA
p2486
sI2491
VKAwe
p2487
sI2492
VKAyA
p2488
sI2493
VKEra
p2489
sI2494
VKIMcane
p2490
sI2495
VKIMcawA
p2491
sI2496
VKUna
p2492
sI2497
VKaMBe
p2493
sI2498
VKarIxanA
p2494
sI2499
VKewoM
p2495
sI2500
VKo
p2496
sI2501
VKolA
p2497
sI2502
VKuKarI
p2498
sI2503
VKuSa
p2499
sI2504
VKuSabUxAra
p2500
sI2505
VKuSagavAra
p2501
sI2506
VKulawe
p2502
sI2507
VKvAhiSa
p2503
sI2508
VOYPabIta
p2504
sI2509
VOYparetara
p2505
sI2510
VOYparetaroM
p2506
sI2511
VOYrganAijeSana
p2507
sI2512
VOYrieMtala
p2508
sI2513
VOYrkidsa
p2509
sI2514
VOYstriyana
p2510
sI2515
VOYtorikSA
p2511
sI2516
VOpacArikawAeM
p2512
sI2517
VOxyogika
p2513
sI2518
VPOYrana
p2514
sI2519
VPeSala
p2515
sI2520
VPiSa
p2516
sI2521
VPiksada
p2517
sI2522
VPilda
p2518
sI2523
VPilma
p2519
sI2524
VPilmeM
p2520
sI2525
VPlEga
p2521
sI2526
VPrAMsIsI
p2522
sI2527
VPrAMsisI
p2523
sI2528
VPrI
p2524
sI2529
VPreMca
p2525
sI2530
VPreSanara
p2526
sI2531
VS
sI2532
VSAhajahAM
p2527
sI2533
VSAhajahAz
p2528
sI2534
VSAsakoM
p2529
sI2535
VSAsiwa
p2530
sI2536
VSEva
p2531
sI2537
VSIrRa
p2532
sI2538
VSIwa
p2533
sI2539
VSOYrta
p2534
sI2540
VSOYrtsa
p2535
sI2541
VSaMkara
p2536
sI2542
VSakwiSAlI
p2537
sI2543
VSarmA
p2538
sI2544
VSarta
p2539
sI2545
VSarwa
p2540
sI2546
VSepa
p2541
sI2547
VSikAgA
p2542
sI2548
VSikRA
p2543
sI2549
VSilpa
p2544
sI2550
VSimarI
p2545
sI2551
VSivAjI
p2546
sI2552
VSivAlika
p2547
sI2553
VSivira
p2548
sI2554
VSixxawa
p2549
sI2555
VSoRaNa
p2550
sI2556
VSrIraMgapattama
p2551
sI2557
VSrqMKalAoM
p2552
sI2558
VSukravAra
p2553
sI2559
VSuru
p2554
sI2560
VTaMdaka
p2555
sI2561
VTahareM
p2556
sI2562
VURNa
p2557
sI2563
VUrjA
p2558
sI2564
VUtI
p2559
sI2565
VWAilEMda
p2560
sI2566
VWaka
p2561
sI2567
VWiMpU
p2562
sI2568
VWietara
p2563
sI2569
VXAna
p2564
sI2570
VXArAoM
p2565
sI2571
VXOja
p2566
sI2572
VXUla
p2567
sI2573
VXadZakana
p2568
sI2574
VXarohara
p2569
sI2575
Va
sI2576
VaBiyAnoM
p2570
sI2577
VaMSa
p2571
sI2578
VaMgrejI
p2572
sI2579
VaSva
p2573
sI2580
VaSvameXa
p2574
sI2581
VaWavA
p2575
sI2582
VaXUrI
p2576
sI2583
VaXikAMSa
p2577
sI2584
VaXikArI
p2578
sI2585
VadavAMsa
p2579
sI2586
Vadde
p2580
sI2587
VajFAwa
p2581
sI2588
ValOkika
p2582
sI2589
VamAuMta
p2583
sI2590
VanUTI
p2584
sI2591
VanuBavoM
p2585
sI2592
VanuyAyiyoM
p2586
sI2593
VanwarrARtrIya
p2587
sI2594
VanwarreKA
p2588
sI2595
Vanxara
p2589
sI2596
VapAra
p2590
sI2597
VarAXanA
p2591
sI2598
VarWa
p2592
sI2599
VaraviMxa
p2593
sI2600
Varjuna
p2594
sI2601
VasIma
p2595
sI2602
VasWAI
p2596
sI2603
VatalAMtika
p2597
sI2604
VavawAra
p2598
sI2605
VaviSvasanIya
p2599
sI2606
VavismaraNIya
p2600
sI2607
VaxBuwa
p2601
sI2608
VaxilAbAxa
p2602
sI2609
VbAWa
p2603
sI2610
VbAWarUma
p2604
sI2611
VbAla
p2605
sI2612
VbAraKora
p2606
sI2613
VbAxaSAha
p2607
sI2614
VbEMka
p2608
sI2615
VbETI
p2609
sI2616
VbETa
p2610
sI2617
VbETeM
p2611
sI2618
VbEktIriyA
p2612
sI2619
VbEleMsa
p2613
sI2620
VbEna
p2614
sI2621
VbIara
p2615
sI2622
VbIdsa
p2616
sI2623
VbOYtama
p2617
sI2624
VbOYtanikala
p2618
sI2625
VbUJa
p2619
sI2626
Vba
p2620
sI2627
VbaDZAvA
p2621
sI2628
VbaDZAwA
p2622
sI2629
VbaDZawA
p2623
sI2630
VbaDZowarI
p2624
sI2631
VbacA
p2625
sI2632
VbacAe
p2626
sI2633
VbagIce
p2627
sI2634
VbagadogarA
p2628
sI2635
VbaharahAla
p2629
sI2636
VbajAne
p2630
sI2637
VbanAkara
p2631
sI2638
VbanAwA
p2632
sI2639
VbanavAe
p2633
sI2640
VbanawI
p2634
sI2641
VbarAxarI
p2635
sI2642
VbarPIlI
p2636
sI2643
VbarasAwa
p2637
sI2644
VbataraPlAI
p2638
sI2645
VbawA
p2639
sI2646
VbawAI
p2640
sI2647
VbaxalA
p2641
sI2648
Vbaxalane
p2642
sI2649
VbayAra
p2643
sI2650
Vbecane
p2644
sI2651
Vbesa
p2645
sI2652
Vbesika
p2646
sI2653
VbetI
p2647
sI2654
Vbete
p2648
sI2655
VbiTUra
p2649
sI2656
VbigAdZa
p2650
sI2657
VbildiMga
p2651
sI2658
VbiraMgI
p2652
sI2659
VbiwAe
p2653
sI2660
VbiwAnA
p2654
sI2661
VblEka
p2655
sI2662
Vbotsa
p2656
sI2663
Vbraja
p2657
sI2664
VbuMxelA
p2658
sI2665
VbuMxelAoM
p2659
sI2666
Vbuketa
p2660
sI2667
VbunI
p2661
sI2668
Vbure
p2662
sI2669
VbyAsa
p2663
sI2670
VcAMxanI
p2664
sI2671
VcAhawA
p2665
sI2672
VcAinIja
p2666
sI2673
VcArabAga
p2667
sI2674
VcArja
p2668
sI2675
VcAyala
p2669
sI2676
VcEnnE
p2670
sI2677
VcOYisa
p2671
sI2678
VcOdZe
p2672
sI2679
VcaMbA
p2673
sI2680
VcaMxaKAnI
p2674
sI2681
Vcahala
p2675
sI2682
VcakAcOMXa
p2676
sI2683
VcalAI
p2677
sI2684
VcalAe
p2678
sI2685
VcalAyA
p2679
sI2686
Vcalakara
p2680
sI2687
Vcalie
p2681
sI2688
VcamawkArI
p2682
sI2689
VcamawkAra
p2683
sI2690
VcaraNoM
p2684
sI2691
VcattAnoM
p2685
sI2692
Vceksa
p2686
sI2693
Vcena
p2687
sI2694
VcennaI
p2688
sI2695
VciMcavAdZa
p2689
sI2696
VcidZiyoM
p2690
sI2697
VciwrAwmaka
p2691
sI2698
Vciwra
p2692
sI2699
VciwrakUta
p2693
sI2700
Vciwrakuta
p2694
sI2701
VciwwOdZagaDZa
p2695
sI2702
VciyAMga
p2696
sI2703
VcorI
p2697
sI2704
VdAyarI
p2698
sI2705
VdIla
p2699
sI2706
VdOY
p2700
sI2707
VdOYkyUmeMtsa
p2701
sI2708
VdOYnegala
p2702
sI2709
VdOYta
p2703
sI2710
VdelhI
p2704
sI2711
VdijZAina
p2705
sI2712
Vdinara
p2706
sI2713
VdipeMda
p2707
sI2714
VdorawI
p2708
sI2715
VdrAivara
p2709
sI2716
Vdragsa
p2710
sI2717
Vdresa
p2711
sI2718
Vdreseja
p2712
sI2719
VdriMka
p2713
sI2720
VdyUnsa
p2714
sI2721
VeMgala
p2715
sI2722
VeSiyAI
p2716
sI2723
VeSiyana
p2717
sI2724
VedEptara
p2718
sI2725
Vedajasta
p2719
sI2726
VehasAsa
p2720
sI2727
VejaMsiyoM
p2721
sI2728
VejeMsiyoM
p2722
sI2729
VeksapIriyaMsa
p2723
sI2730
VeksarasAija
p2724
sI2731
VeliPeMta
p2725
sI2732
VelimeMtsa
p2726
sI2733
VeltItyUda
p2727
sI2734
VemPIWietara
p2728
sI2735
VgElarI
p2729
sI2736
VgOrava
p2730
sI2737
VgaDZa
p2731
sI2738
VgaMwavya
p2732
sI2739
VgaganacuMbI
p2733
sI2740
Vgahare
p2734
sI2741
Vgajaba
p2735
sI2742
VgalI
p2736
sI2743
Vgalawa
p2737
sI2744
Vgarla
p2738
sI2745
VgavAha
p2739
sI2746
VgavAvA
p2740
sI2747
Vgemsa
p2741
sI2748
Vgesta
p2742
sI2749
Vgetave
p2743
sI2750
VgiPta
p2744
sI2751
Vgirxa
p2745
sI2752
VgoA
p2746
sI2753
Vgokula
p2747
sI2754
VgolA
p2748
sI2755
Vgoldana
p2749
sI2756
VgoviMxA
p2750
sI2757
Vgoxa
p2751
sI2758
VgrAuMda
p2752
sI2759
VgrEMda
p2753
sI2760
VgrIna
p2754
sI2761
VgrahaNa
p2755
sI2762
VguPAeM
p2756
sI2763
VgujArie
p2757
sI2764
Vgujarane
p2758
sI2765
VgujarawA
p2759
sI2766
Vguma
p2760
sI2767
VgunA
p2761
sI2768
Vgunnara
p2762
sI2769
VhAidroilEktrika
p2763
sI2770
VhAlawa
p2764
sI2771
VhAliyA
p2765
sI2772
VhAusabota
p2766
sI2773
VhE?
p2767
sI2774
VhEMdIkrAPta
p2768
sI2775
VhElo
p2769
sI2776
VhEpI
p2770
sI2777
VhErAna
p2771
sI2778
VhU
p2772
sI2779
VhaMsAne
p2773
sI2780
VhaMsane
p2774
sI2781
Vhala
p2775
sI2782
Vhalacala
p2776
sI2783
Vhamase
p2777
sI2784
VharaxOla
p2778
sI2785
Vharbala
p2779
sI2786
Vharbsa
p2780
sI2787
VhatAne
p2781
sI2788
VhayAwa
p2782
sI2789
Vhekteyara
p2783
sI2790
VhelWa
p2784
sI2791
Vheriteja
p2785
sI2792
VhevalOYka
p2786
sI2793
VhimAlayI
p2787
sI2794
VhimAlayana
p2788
sI2795
Vhimmawa
p2789
sI2796
Vhinxa
p2790
sI2797
VhinxuoM
p2791
sI2798
VhiraNa
p2792
sI2799
ViMPekSana
p2793
sI2800
ViMdigo
p2794
sI2801
ViMjOYya
p2795
sI2802
ViMsAna
p2796
sI2803
ViMstItyUta
p2797
sI2804
ViMtara
p2798
sI2805
VicCA
p2799
sI2806
VijipSiyana
p2800
sI2807
VimarajeMsI
p2801
sI2808
VinaPrAstrakcara
p2802
sI2809
Vinadevalapa
p2803
sI2810
VinhIM
p2804
sI2811
Virxa
p2805
sI2812
Visane
p2806
sI2813
Viwara
p2807
sI2814
ViwyAxi
p2808
sI2815
VjAMca
p2809
sI2816
VjAie
p2810
sI2817
VjAna
p2811
sI2818
VjAnakAroM
p2812
sI2819
VjApAna
p2813
sI2820
VjAwiyoM
p2814
sI2821
VjAyakA
p2815
sI2822
VjEketa
p2816
sI2823
VjIro
p2817
sI2824
VjUnAgaDZa
p2818
sI2825
VjUwe
p2819
sI2826
VjZarUrawa
p2820
sI2827
VjaSna
p2821
sI2828
VjahAMgIra
p2822
sI2829
VjahAja
p2823
sI2830
Vjalakala
p2824
sI2831
VjallaMxara
p2825
sI2832
Vjalxa
p2826
sI2833
VjamIna
p2827
sI2834
Vjama
p2828
sI2835
Vjariye
p2829
sI2836
Vjasarakota
p2830
sI2837
Vjatila
p2831
sI2838
VjavAba
p2832
sI2839
VjavAna
p2833
sI2840
Vjehana
p2834
sI2841
VjinakA
p2835
sI2842
VjinakI
p2836
sI2843
Vjinase
p2837
sI2844
Vjinnasa
p2838
sI2845
Vjisane
p2839
sI2846
VjogI
p2840
sI2847
VjohAnisabarga
p2841
sI2848
Vjoka
p2842
sI2849
VjubAna
p2843
sI2850
VkAMgadZA
p2844
sI2851
VkASwakAroM
p2845
sI2852
VkAbU
p2846
sI2853
VkAlacakra
p2847
sI2854
VkAle
p2848
sI2855
VkAliMxIKala
p2849
sI2856
VkAnAkonA
p2850
sI2857
VkAnUna
p2851
sI2858
VkAnapura
p2852
sI2859
VkArbeta
p2853
sI2860
VkArda
p2854
sI2861
VkAreM
p2855
sI2862
VkArla
p2856
sI2863
VkAroM
p2857
sI2864
VkArobAriyoM
p2858
sI2865
VkAryAlaya
p2859
sI2866
VkAta
p2860
sI2867
VkAvyAwmaka
p2861
sI2868
VkAzgadZA
p2862
sI2869
VkEMpa
p2863
sI2870
VkEPe
p2864
sI2871
VkEmarUna
p2865
sI2872
VkEmare
p2866
sI2873
VkErI
p2867
sI2874
VkErika
p2868
sI2875
VkExa
p2869
sI2876
VkImawoM
p2870
sI2877
VkOSala
p2871
sI2878
VkOYPI
p2872
sI2879
VkOYleja
p2873
sI2880
VkOYma
p2874
sI2881
VkOYmpitiSana
p2875
sI2882
VkOYntekta
p2876
sI2883
VkOYsta
p2877
sI2884
VkOwuhala
p2878
sI2885
VkaMjarveSana
p2879
sI2886
VkaTinAiyoM
p2880
sI2887
VkaTina
p2881
sI2888
Vkacce
p2882
sI2889
VkadZA
p2883
sI2890
VkadZI
p2884
sI2891
VkahAniyAz
p2885
sI2892
VkahAniyoM
p2886
sI2893
Vkaha
p2887
sI2894
VkahalAwA
p2888
sI2895
Vkahe
p2889
sI2896
VkalAkAroM
p2890
sI2897
Vkala
p2891
sI2898
Vkalarsa
p2892
sI2899
Vkalcarala
p2893
sI2900
VkanaParma
p2894
sI2901
VkarAnA
p2895
sI2902
VkaravAI
p2896
sI2903
VkaravAegA
p2897
sI2904
VkaravAnA
p2898
sI2905
VkaravAnI
p2899
sI2906
VkaravAwe
p2900
sI2907
Vkariyara
p2901
sI2908
VkasInoja
p2902
sI2909
VkasbA
p2903
sI2910
Vkasbe
p2904
sI2911
Vkastamara
p2905
sI2912
VkatI
p2906
sI2913
VkatarA
p2907
sI2914
Vkate
p2908
sI2915
VkatorI
p2909
sI2916
VkavarawwI
p2910
sI2917
VkaviyoM
p2911
sI2918
VkawAra
p2912
sI2919
VkeMxrIya
p2913
sI2920
Vkeka
p2914
sI2921
Vkela
p2915
sI2922
Vkele
p2916
sI2923
Vkeyara
p2917
sI2924
Vkilo
p2918
sI2925
VkinnOra
p2919
sI2926
Vkinwu
p2920
sI2927
VkirAyA
p2921
sI2928
Vkisse
p2922
sI2929
VkiwAboM
p2923
sI2930
Vkiwane
p2924
sI2931
Vklika
p2925
sI2932
VkolakAwA
p2926
sI2933
Vkorta
p2927
sI2934
VkoyambatUra
p2928
sI2935
Vkqwi
p2929
sI2936
VkrAPta
p2930
sI2937
VkrIdZA
p2931
sI2938
VkrIma
p2932
sI2939
Vkrama
p2933
sI2940
VkuAlAlaMpura
p2934
sI2941
VkuMDAra
p2935
sI2942
VkuParI
p2936
sI2943
VkuSala
p2937
sI2944
Vkuka
p2938
sI2945
Vkulavuda
p2939
sI2946
Vkullu
p2940
sI2947
VkuxarawI
p2941
sI2948
VkvIna
p2942
sI2949
VlABa
p2943
sI2950
VlAKoM
p2944
sI2951
VlAhOla
p2945
sI2952
VlAlagaDZa
p2946
sI2953
VlAmAoM
p2947
sI2954
VlEMda
p2948
sI2955
VlEMdiMga
p2949
sI2956
VlEMgveja
p2950
sI2957
VlOYja
p2951
sI2958
VladZakI
p2952
sI2959
VladZakiyoM
p2953
sI2960
VlagAne
p2954
sI2961
VlagAva
p2955
sI2962
VlagAyA
p2956
sI2963
Vlageja
p2957
sI2964
Vlagjara
p2958
sI2965
VlajIja
p2959
sI2966
VlakI
p2960
sI2967
VlakRaNa
p2961
sI2968
VlakRmI
p2962
sI2969
Vlalaka
p2963
sI2970
VleKakoM
p2964
sI2971
VleKana
p2965
sI2972
VlePta
p2966
sI2973
VlenI
p2967
sI2974
Vletesta
p2968
sI2975
VlewA
p2969
sI2976
VlewI
p2970
sI2977
Vleyara
p2971
sI2978
VliKiwa
p2972
sI2979
VlihAja
p2973
sI2980
VloSana
p2974
sI2981
VlokeSaMsa
p2975
sI2982
VluBAvanA
p2976
sI2983
VmAI
p2977
sI2984
VmAha
p2978
sI2985
VmAlanA
p2979
sI2986
VmAlikoM
p2980
sI2987
VmAnI
p2981
sI2988
VmAnane
p2982
sI2989
VmArane
p2983
sI2990
VmArketiMga
p2984
sI2991
VmArkita
p2985
sI2992
VmArksa
p2986
sI2993
VmAulina
p2987
sI2994
VmAuntena
p2988
sI2995
VmEMgalora
p2989
sI2996
VmEmoriyala
p2990
sI2997
VmEpa
p2991
sI2998
VmExAnI
p2992
sI2999
VmI
p2993
sI3000
VmI.
p2994
sI3001
VmInAreM
p2995
sI3002
VmIsA
p2996
sI3003
VmIta
p2997
sI3004
VmOYnestrI
p2998
sI3005
VmOYriSasa
p2999
sI3006
VmOja
p3000
sI3007
VmOwa
p3001
sI3008
VmUlya
p3002
sI3009
VmaMgAyA
p3003
sI3010
VmaMjUrI
p3004
sI3011
VmaMjara
p3005
sI3012
VmaMxAkinI
p3006
sI3013
VmaNdI
p3007
sI3014
VmaSIna
p3008
sI3015
VmaXyakAlIna
p3009
sI3016
VmacCaliyoM
p3010
sI3017
Vmagara
p3011
sI3018
VmagaramacCa
p3012
sI3019
VmahAkAvya
p3013
sI3020
VmahAkAvyoM
p3014
sI3021
VmahArARtra
p3015
sI3022
VmahArAnI
p3016
sI3023
VmahawvAkAMkRI
p3017
sI3024
Vmahawwva
p3018
sI3025
VmajabUra
p3019
sI3026
VmajabUwa
p3020
sI3027
VmakabarA
p3021
sI3028
Vmakabare
p3022
sI3029
VmakabaroM
p3023
sI3030
Vmanoja
p3024
sI3031
VmaradekA
p3025
sI3032
Vmariyama
p3026
sI3033
Vmasale
p3027
sI3034
Vmasjixa
p3028
sI3035
Vmawa
p3029
sI3036
VmaxInA
p3030
sI3037
Vme
p3031
sI3038
Vmedana
p3032
sI3039
Vmedisinala
p3033
sI3040
VmediteSana
p3034
sI3041
VmehamAna
p3035
sI3042
VmehawAba
p3036
sI3043
Vmekaapa
p3037
sI3044
VmeloM
p3038
sI3045
Vmena
p3039
sI3046
Vmetro
p3040
sI3047
VmiSraNa
p3041
sI3048
VmijAja
p3042
sI3049
VmilI
p3043
sI3050
Vmilakara
p3044
sI3051
Vmiwra
p3045
sI3052
Vmola
p3046
sI3053
VmonoliWika
p3047
sI3054
Vmorakko
p3048
sI3055
Vmote
p3049
sI3056
VmuInuxxIna
p3050
sI3057
Vmuhima
p3051
sI3058
VmukAbalA
p3052
sI3059
VmukAma
p3053
sI3060
VmusAPiroM
p3054
sI3061
VmusIbawa
p3055
sI3062
VmuxrA
p3056
sI3063
VmyAMmAra
p3057
sI3064
VmyUjZiyama
p3058
sI3065
VmyUjikala
p3059
sI3066
VnAcane
p3060
sI3067
VnAgAlEMda
p3061
sI3068
VnAgOra
p3062
sI3069
VnAgapura
p3063
sI3070
VnAhana
p3064
sI3071
VnAlaxeharA
p3065
sI3072
VnAmI
p3066
sI3073
VnAnasa
p3067
sI3074
VnArakaMdA
p3068
sI3075
VnAwe
p3069
sI3076
VnEnI
p3070
sI3077
VnIwi
p3071
sI3078
VnOYrmala
p3072
sI3079
VnaMxA
p3073
sI3080
VnaMxAxevI
p3074
sI3081
VnagarI
p3075
sI3082
VnajZArA
p3076
sI3083
VnakkASI
p3077
sI3084
VnakkASIxAra
p3078
sI3085
VnamUne
p3079
sI3086
Vnamaka
p3080
sI3087
Vnarvasa
p3081
sI3088
VnavAjA
p3082
sI3089
VnawIjA
p3083
sI3090
VnevI
p3084
sI3091
VnewAoM
p3085
sI3092
VniSAna
p3086
sI3093
VniSciMwa
p3087
sI3094
Vnicale
p3088
sI3095
VnigrA
p3089
sI3096
VnijZAma
p3090
sI3097
VnikAla
p3091
sI3098
Vnikalakara
p3092
sI3099
Vnikale
p3093
sI3100
VnikatavarwI
p3094
sI3101
Vnikatawama
p3095
sI3102
Vnimna
p3096
sI3103
VnivAsI
p3097
sI3104
VniveSa
p3098
sI3105
Vnota
p3099
sI3106
Vnqwya
p3100
sI3107
Vnuha
p3101
sI3108
VnyUditI
p3102
sI3109
VnyUjIlEMda
p3103
sI3110
VnyUjarsI
p3104
sI3111
Volda
p3105
sI3112
VpAMdavoM
p3106
sI3113
VpAMde
p3107
sI3114
VpAeM
p3108
sI3115
VpAegA
p3109
sI3116
VpAkiswAna
p3110
sI3117
VpAlamapura
p3111
sI3118
VpAma
p3112
sI3119
VpAramparika
p3113
sI3120
VpArksa
p3114
sI3121
VpArtiyoM
p3115
sI3122
VpAswA
p3116
sI3123
VpAvana
p3117
sI3124
VpAvara
p3118
sI3125
VpEka
p3119
sI3126
VpEkija
p3120
sI3127
VpEsiMjarsa
p3121
sI3128
VpIseja
p3122
sI3129
VpOXoM
p3123
sI3130
VpOYliSa
p3124
sI3131
VpOYlisI
p3125
sI3132
VpOYlisIja
p3126
sI3133
VpOYnte
p3127
sI3134
VpOYpyulara
p3128
sI3135
VpUrNimA
p3129
sI3136
VpUrvaja
p3130
sI3137
VpaDZAI
p3131
sI3138
Vpaba
p3132
sI3139
VpadZane
p3133
sI3140
VpahacAna
p3134
sI3141
VpahanA
p3135
sI3142
Vpahanane
p3136
sI3143
Vpahane
p3137
sI3144
VpahuMcAne
p3138
sI3145
VpahuMcAwA
p3139
sI3146
VpakadZa
p3140
sI3147
VpakadZanI
p3141
sI3148
VpakadZe
p3142
sI3149
Vpalaka
p3143
sI3150
Vparamita
p3144
sI3151
Vparanwu
p3145
sI3152
Vpare
p3146
sI3153
VpareSAniyoM
p3147
sI3154
VpariBARA
p3148
sI3155
VpariXAna
p3149
sI3156
Vparicaya
p3150
sI3157
Vparikalpiwa
p3151
sI3158
VparipUrNa
p3152
sI3159
VparirakRiwa
p3153
sI3160
Vparsenta
p3154
sI3161
VparvawIya
p3155
sI3162
Vpasanxa
p3156
sI3163
Vpawi
p3157
sI3164
VpawnI
p3158
sI3165
VpaxminI
p3159
sI3166
Vpe
p3160
sI3167
VpeSakaSa
p3161
sI3168
VpenAMga
p3162
sI3169
Vpepara
p3163
sI3170
VperiyAra
p3164
sI3171
Vpetrola
p3165
sI3172
VpetronAsa
p3166
sI3173
VpiMparI
p3167
sI3174
VpijjA
p3168
sI3175
VpiwA
p3169
sI3176
VplAstika
p3170
sI3177
VplEtaPOYrma
p3171
sI3178
VpontA
p3172
sI3179
VprApwi
p3173
sI3180
VprAyaH
p3174
sI3181
VprIPara
p3175
sI3182
VprOYdakta
p3176
sI3183
VprUPa
p3177
sI3184
VpraKyAwa
p3178
sI3185
VpraPeSanalsa
p3179
sI3186
VprabaMXa
p3180
sI3187
VprabaMXana
p3181
sI3188
VpracAra
p3182
sI3189
VpracaNda
p3183
sI3190
VprakASiwa
p3184
sI3191
VprasAra
p3185
sI3192
VprawIwa
p3186
sI3193
VprawiRTiwa
p3187
sI3194
Vprawixina
p3188
sI3195
VpraxarSana
p3189
sI3196
VprayAsoM
p3190
sI3197
VpregneMsI
p3191
sI3198
VpregneMta
p3192
sI3199
VpremI
p3193
sI3200
Vpreriwa
p3194
sI3201
VpresideMta
p3195
sI3202
VpriPara
p3196
sI3203
VprogrAma
p3197
sI3204
VprogrEma
p3198
sI3205
VprogrEmsa
p3199
sI3206
VpuKwA
p3200
sI3207
VpurANoM
p3201
sI3208
VpurwagAlI
p3202
sI3209
VpurwagAliyoM
p3203
sI3210
VpurwagAloM
p3204
sI3211
VqRi
p3205
sI3212
VqRikeSa
p3206
sI3213
VqcA
p3207
sI3214
VrARtra
p3208
sI3215
VrAXAnagara
p3209
sI3216
VrAiPalsa
p3210
sI3217
VrAida
p3211
sI3218
VrAidsa
p3212
sI3219
VrAjaSAhI
p3213
sI3220
VrAjakIya
p3214
sI3221
VrAjanEwika
p3215
sI3222
VrAjapUwa
p3216
sI3223
VrAnIKewa
p3217
sI3224
VrAsa
p3218
sI3225
VrAvaNa
p3219
sI3226
VrElI
p3220
sI3227
VrIda
p3221
sI3228
VrOYka
p3222
sI3229
VrUbarU
p3223
sI3230
VrUcikara
p3224
sI3231
VrUtoM
p3225
sI3232
VrUtsa
p3226
sI3233
VraKawA
p3227
sI3234
VraMgapattama
p3228
sI3235
VraSka
p3229
sI3236
VrahIM
p3230
sI3237
VraheMgI
p3231
sI3238
VrajistreSana
p3232
sI3239
Vrawna
p3233
sI3240
VreMja
p3234
sI3241
VrenukA
p3235
sI3242
Vresa
p3236
sI3243
VrestahAusa
p3237
sI3244
Vreta
p3238
sI3245
Vrewa
p3239
sI3246
VrikavarI
p3240
sI3247
VriyAjZa
p3241
sI3248
VrohawagI
p3242
sI3249
Vrohiwa
p3243
sI3250
Vrokane
p3244
sI3251
Vruka
p3245
sI3252
Vrukakara
p3246
sI3253
Vrutsa
p3247
sI3254
VsAXAraNa
p3248
sI3255
VsAbiwa
p3249
sI3256
VsAdZiyoM
p3250
sI3257
VsAjo
p3251
sI3258
VsAkAra
p3252
sI3259
VsAkRarawA
p3253
sI3260
VsAkRya
p3254
sI3261
VsAmAnya
p3255
sI3262
VsAmAnyawaH
p3256
sI3263
VsAmagrI
p3257
sI3264
VsAmarika
p3258
sI3265
VsAmrAjya
p3259
sI3266
VsAuMda
p3260
sI3267
VsAvana
p3261
sI3268
VsEma
p3262
sI3269
VsEnikoM
p3263
sI3270
VsEragAha
p3264
sI3271
VsIDZiyAM
p3265
sI3272
VsIDZiyoM
p3266
sI3273
VsIKane
p3267
sI3274
VsIXA
p3268
sI3275
VsImAoM
p3269
sI3276
VsIpoM
p3270
sI3277
VsOxA
p3271
sI3278
VsPatika
p3272
sI3279
VsUPI
p3273
sI3280
VsUcanA
p3274
sI3281
VsUja
p3275
sI3282
VsUrya
p3276
sI3283
VsUryoxaya
p3277
sI3284
VsUta
p3278
sI3285
VsUtakesa
p3279
sI3286
VsUwI
p3280
sI3287
VsUwroM
p3281
sI3288
VsWiwiyoM
p3282
sI3289
VsaMbaMXI
p3283
sI3290
VsaMgraha
p3284
sI3291
VsaMkIrNa
p3285
sI3292
VsaMkata
p3286
sI3293
VsaMpaxA
p3287
sI3294
VsaMrakRiwa
p3288
sI3295
VsaMskqwiyoM
p3289
sI3296
VsaMvqxXa
p3290
sI3297
VsaMwulana
p3291
sI3298
VsaMyukwa
p3292
sI3299
VsaPAI
p3293
sI3300
VsaPAriyAz
p3294
sI3301
VsaSakwa
p3295
sI3302
VsabUwa
p3296
sI3303
Vsaciva
p3297
sI3304
VsahAre
p3298
sI3305
Vsaheje
p3299
sI3306
VsajI
p3300
sI3307
VsajIvawA
p3301
sI3308
VsakUMgA
p3302
sI3309
VsakegI
p3303
sI3310
VsalAma
p3304
sI3311
VsalAxa
p3305
sI3312
VsamIpa
p3306
sI3313
VsamIpasWa
p3307
sI3314
VsammAniwa
p3308
sI3315
Vsampanna
p3309
sI3316
VsanabAWiMga
p3310
sI3317
VsapAte
p3311
sI3318
VsapanoM
p3312
sI3319
VsarakAroM
p3313
sI3320
Vsarala
p3314
sI3321
VsarkuleSana
p3315
sI3322
Vsarva
p3316
sI3323
Vsarxa
p3317
sI3324
VsaswA
p3318
sI3325
VsaswI
p3319
sI3326
VsavA
p3320
sI3327
VsavAI
p3321
sI3328
Vsawyama
p3322
sI3329
VsaxAbahAra
p3323
sI3330
VseMsuasa
p3324
sI3331
VseMtrala
p3325
sI3332
Vsektara
p3326
sI3333
VselibreSana
p3327
sI3334
Vselsa
p3328
sI3335
Vselyulara
p3329
sI3336
VsenAnI
p3330
sI3337
VsenAniyoM
p3331
sI3338
VsikyuritI
p3332
sI3339
VsilvA
p3333
sI3340
VsiramOra
p3334
sI3341
VsivAya
p3335
sI3342
VsiwAra
p3336
sI3343
Vsiwambara
p3337
sI3344
VsixXa
p3338
sI3345
VskAI
p3339
sI3346
Vskina
p3340
sI3347
VskrIna
p3341
sI3348
VslAidsa
p3342
sI3349
Vsmqwi
p3343
sI3350
VsnAna
p3344
sI3351
VsnOYrkaliMga
p3345
sI3352
VsnOYrkliMga
p3346
sI3353
Vsno
p3347
sI3354
Vsoca
p3348
sI3355
Vsoe
p3349
sI3356
Vsoka
p3350
sI3357
Vsorento
p3351
sI3358
VspAisa
p3352
sI3359
VspOYrtsa
p3353
sI3360
Vspesa
p3354
sI3361
VstIyariMga
p3355
sI3362
VsteSaMsa
p3356
sI3363
VsteSanoM
p3357
sI3364
Vstona
p3358
sI3365
Vstrakcara
p3359
sI3366
VsuBARa
p3360
sI3367
VsuMxarAnI
p3361
sI3368
VsuWare
p3362
sI3369
VsunAI
p3363
sI3370
Vsuna
p3364
sI3371
VsunxarawA
p3365
sI3372
VsurKiyoM
p3366
sI3373
VsuswI
p3367
sI3374
VsuviXAjanaka
p3368
sI3375
VsuxUra
p3369
sI3376
VsvAgawa
p3370
sI3377
VsvarUpa
p3371
sI3378
VsvargIya
p3372
sI3379
VsvitjaralEMda
p3373
sI3380
VswUpoM
p3374
sI3381
VswaMBa
p3375
sI3382
VtAtA
p3376
sI3383
VtAyara
p3377
sI3384
VtEriPa
p3378
sI3385
VtIloM
p3379
sI3386
VtOYya
p3380
sI3387
VtUrijZama
p3381
sI3388
VtaMkI
p3382
sI3389
Vtarma
p3383
sI3390
Vtarminala
p3384
sI3391
VtiharI
p3385
sI3392
VtrAI
p3386
sI3393
VtrAMjita
p3387
sI3394
VtrEksa
p3388
sI3395
VtrEvalsa
p3389
sI3396
VtrI
p3390
sI3397
VtradiSaMsa
p3391
sI3398
VtrekaroM
p3392
sI3399
VtreneM
p3393
sI3400
VtukadZA
p3394
sI3401
VtukadZe
p3395
sI3402
VuTAnA
p3396
sI3403
VuXamapura
p3397
sI3404
Vubara
p3398
sI3405
VudZAnoM
p3399
sI3406
Vumasa
p3400
sI3407
VupAXi
p3401
sI3408
VupahAra
p3402
sI3409
VupajAU
p3403
sI3410
Vupayukwa
p3404
sI3411
Vursa
p3405
sI3412
VusameM
p3406
sI3413
Vusware
p3407
sI3414
VuwanI
p3408
sI3415
VuwsAhI
p3409
sI3416
VuwsAhiwa
p3410
sI3417
VuxAsI
p3411
sI3418
Vuxayapura
p3412
sI3419
VvAhana
p3413
sI3420
VvAhanoM
p3414
sI3421
VvAikiMga
p3415
sI3422
VvAipara
p3416
sI3423
VvAisa
p3417
sI3424
VvApasI
p3418
sI3425
VvAxA
p3419
sI3426
VvAyu
p3420
sI3427
VvEjFAnika
p3421
sI3428
VvEsA
p3422
sI3429
VvEsI
p3423
sI3430
VvOYcatAvara
p3424
sI3431
VvOYriyara
p3425
sI3432
VvanoM
p3426
sI3433
VvanyajIvana
p3427
sI3434
VvarNana
p3428
sI3435
VvarRA
p3429
sI3436
VvarRoM
p3430
sI3437
VvebasAita
p3431
sI3438
VvexoM
p3432
sI3439
VviBAsa
p3433
sI3440
VviBURiwa
p3434
sI3441
VviMdo
p3435
sI3442
VviRNu
p3436
sI3443
VviSvayuxXa
p3437
sI3444
VvihAroM
p3438
sI3445
Vvijaya
p3439
sI3446
Vvijitarsa
p3440
sI3447
VvilakRaNa
p3441
sI3448
VvilupwaprAyaH
p3442
sI3449
VvinyAsoM
p3443
sI3450
VviwwIya
p3444
sI3451
VvqnxAvana
p3445
sI3452
VvyApaka
p3446
sI3453
VvyaMjanoM
p3447
sI3454
VvyakwiyoM
p3448
sI3455
Vvyaswa
p3449
sI3456
VvyavahAra
p3450
sI3457
VwAhiwi
p3451
sI3458
VwAje
p3452
sI3459
VwAxAxa
p3453
sI3460
VwEnAwI
p3454
sI3461
VwErAkI
p3455
sI3462
VwEyArI
p3456
sI3463
VwEyAriyAM
p3457
sI3464
VwIrWAtana
p3458
sI3465
VwIrWarAja
p3459
sI3466
VwIwara
p3460
sI3467
VwaMga
p3461
sI3468
VwaWya
p3462
sI3469
VwabxIla
p3463
sI3470
VwarIkoM
p3464
sI3471
VweMxuA
p3465
sI3472
VweMxue
p3466
sI3473
VwihAI
p3467
sI3474
VwiwaliyoM
p3468
sI3475
VwodZakara
p3469
sI3476
VwroMgsA
p3470
sI3477
VwuraMwa
p3471
sI3478
VxArA
p3472
sI3479
VxAvA
p3473
sI3480
VxAyare
p3474
sI3481
VxEwyAkAra
p3475
sI3482
VxIvAnoM
p3476
sI3483
VxIxAra
p3477
sI3484
VxaSaka
p3478
sI3485
VxaSakoM
p3479
sI3486
VxalaxalI
p3480
sI3487
VxarjA
p3481
sI3488
Vxarre
p3482
sI3489
VxeKaBAla
p3483
sI3490
VxeharAxUna
p3484
sI3491
VxevagaDZa
p3485
sI3492
VxevasvAma
p3486
sI3493
VxiKA
p3487
sI3494
VxiKAegA
p3488
sI3495
VxiKAwI
p3489
sI3496
VxiKAyA
p3490
sI3497
VxiKIM
p3491
sI3498
VxilakaSa
p3492
sI3499
VxoswAnA
p3493
sI3500
VxruwagAmI
p3494
sI3501
VxubaI
p3495
sI3502
VxukAna
p3496
sI3503
VxukAneM
p3497
sI3504
VxumaxamA
p3498
sI3505
VxviwIya
p3499
sI3506
VyUpI
p3500
sI3507
VyUropIya
p3501
sI3508
VyaMga
p3502
sI3509
VyakRI
p3503
sI3510
Vyaxyapi
p3504
sI3511
Vyogya
p3505
sI3512
VyuMgaPrAU
p3506
sI3513
VyuvA
p3507
sI3514
V/
sI3515
V0
sI3516
V07
p3508
sI3517
V1,829
p3509
sI3518
V1.39
p3510
sI3519
V10000
p3511
sI3520
V1065
p3512
sI3521
V107
p3513
sI3522
V112
p3514
sI3523
V114
p3515
sI3524
V116
p3516
sI3525
V117
p3517
sI3526
V1174
p3518
sI3527
V119
p3519
sI3528
V1200
p3520
sI3529
V123
p3521
sI3530
V1260
p3522
sI3531
V13,000
p3523
sI3532
V13,700
p3524
sI3533
V1343
p3525
sI3534
V140
p3526
sI3535
V145
p3527
sI3536
V147
p3528
sI3537
V1478
p3529
sI3538
V1537
p3530
sI3539
V1583
p3531
sI3540
V1588
p3532
sI3541
V1593
p3533
sI3542
V15vIM
p3534
sI3543
V1627
p3535
sI3544
V1648
p3536
sI3545
V1706
p3537
sI3546
V176
p3538
sI3547
V1773
p3539
sI3548
V1783
p3540
sI3549
V1788
p3541
sI3550
V1791
p3542
sI3551
V1798
p3543
sI3552
V17vIM
p3544
sI3553
V180
p3545
sI3554
V1800
p3546
sI3555
V1806
p3547
sI3556
V1809
p3548
sI3557
V1810
p3549
sI3558
V1815
p3550
sI3559
V1822
p3551
sI3560
V1829
p3552
sI3561
V1840
p3553
sI3562
V1844
p3554
sI3563
V185
p3555
sI3564
V1857
p3556
sI3565
V1864
p3557
sI3566
V1868
p3558
sI3567
V187
p3559
sI3568
V1883
p3560
sI3569
V1887
p3561
sI3570
V1893
p3562
sI3571
V1897
p3563
sI3572
V1898
p3564
sI3573
V19
p3565
sI3574
V1906
p3566
sI3575
V1935
p3567
sI3576
V1940
p3568
sI3577
V1955
p3569
sI3578
V1957
p3570
sI3579
V1959
p3571
sI3580
V1962
p3572
sI3581
V1971
p3573
sI3582
V1972
p3574
sI3583
V1980
p3575
sI3584
V1983
p3576
sI3585
V1987
p3577
sI3586
V1995
p3578
sI3587
V1997
p3579
sI3588
V1999
p3580
sI3589
V20,000
p3581
sI3590
V2001
p3582
sI3591
V2006
p3583
sI3592
V2007
p3584
sI3593
V2008
p3585
sI3594
V2010
p3586
sI3595
V2030
p3587
sI3596
V20vIM
p3588
sI3597
V2135
p3589
sI3598
V2190
p3590
sI3599
V225
p3591
sI3600
V2300
p3592
sI3601
V2611
p3593
sI3602
V262
p3594
sI3603
V272
p3595
sI3604
V2750
p3596
sI3605
V28
p3597
sI3606
V3,000
p3598
sI3607
V300
p3599
sI3608
V305
p3600
sI3609
V31
p3601
sI3610
V3100
p3602
sI3611
V33
p3603
sI3612
V3355
p3604
sI3613
V34
p3605
sI3614
V3454
p3606
sI3615
V3541
p3607
sI3616
V3660
p3608
sI3617
V370
p3609
sI3618
V3840
p3610
sI3619
V4,000
p3611
sI3620
V4,990
p3612
sI3621
V4000
p3613
sI3622
V41
p3614
sI3623
V4114
p3615
sI3624
V4135
p3616
sI3625
V41vIM
p3617
sI3626
V421
p3618
sI3627
V44
p3619
sI3628
V45
p3620
sI3629
V4511
p3621
sI3630
V459
p3622
sI3631
V49
p3623
sI3632
V4900
p3624
sI3633
V500000
p3625
sI3634
V52.2
p3626
sI3635
V53
p3627
sI3636
V5456
p3628
sI3637
V5500
p3629
sI3638
V5590
p3630
sI3639
V572
p3631
sI3640
V6000
p3632
sI3641
V62
p3633
sI3642
V700
p3634
sI3643
V75
p3635
sI3644
V79
p3636
sI3645
V80
p3637
sI3646
V900
p3638
sI3647
V920
p3639
sI3648
V95
p3640
sI3649
V99
p3641
sI3650
V@
sI3651
VABAra
p3642
sI3652
VAIM
p3643
sI3653
VAIlEMdsa
p3644
sI3654
VAIpOYda
p3645
sI3655
VAItI
p3646
sI3656
VAKarI
p3647
sI3657
VAKirakAra
p3648
sI3658
VAMKeM
p3649
sI3659
VAMgana
p3650
sI3660
VAMwarika
p3651
sI3661
VAMxolana
p3652
sI3662
VAPiSiyala
p3653
sI3663
VASAoM
p3654
sI3664
VAScarya
p3655
sI3665
VAScaryajanaka
p3656
sI3666
VASccaryoM
p3657
sI3667
VASraya
p3658
sI3668
VASvAsana
p3659
sI3669
VATavAM
p3660
sI3670
VAWirka
p3661
sI3671
VAXikAMSa
p3662
sI3672
VAXikArika
p3663
sI3673
VAXunikIkaraNa
p3664
sI3674
VAXyAwmika
p3665
sI3675
VAbI
p3666
sI3676
VAcaraNa
p3667
sI3677
VAdZe
p3668
sI3678
VAgaMwuko
p3669
sI3679
VAgaMwukoM
p3670
sI3680
VAgamana
p3671
sI3681
VAgare
p3672
sI3682
VAgraha
p3673
sI3683
VAie
p3674
sI3684
VAiemaePa
p3675
sI3685
VAileNda
p3676
sI3686
VAitama
p3677
sI3687
VAitamsa
p3678
sI3688
VAjIvana
p3679
sI3689
VAjamA
p3680
sI3690
VAjivikA
p3681
sI3691
VAlApane
p3682
sI3692
VAlU
p3683
sI3693
VAla
p3684
sI3694
VAloka
p3685
sI3695
VAmanwriwa
p3686
sI3696
VAnaMxapraxa
p3687
sI3697
VAnaMxaxAyaka
p3688
sI3698
VAnanxapraxA
p3689
sI3699
VAnanxapraxa
p3690
sI3700
VAnanxaxAyaka
p3691
sI3701
VAnxolana
p3692
sI3702
VArSIvAxa
p3693
sI3703
VArakRaNa
p3694
sI3704
VAramBa
p3695
sI3705
VArkitEkta
p3696
sI3706
VArkitakcara
p3697
sI3707
VArkitekcara
p3698
sI3708
VArkitekcarala
p3699
sI3709
VAroha
p3700
sI3710
VArohaNoM
p3701
sI3711
VAropI
p3702
sI3712
VArya
p3703
sI3713
VAsWA
p3704
sI3714
VAsWAoM
p3705
sI3715
VAsana
p3706
sI3716
VAutabAuMda
p3707
sI3717
VAvAjAhI
p3708
sI3718
VAvaraNa
p3709
sI3719
VAvarwana
p3710
sI3720
VAvegI
p3711
sI3721
VAvexana
p3712
sI3722
VAvirBAva
p3713
sI3723
VAwaMka
p3714
sI3724
VAwaMkavAxa
p3715
sI3725
VAwiSabAjI
p3716
sI3726
VAwiWya
p3717
sI3727
VAwmaviSvAsa
p3718
sI3728
VAwmika
p3719
sI3729
VAxamaKora
p3720
sI3730
VAxamakaxa
p3721
sI3731
VAxarSa
p3722
sI3732
VAxawa
p3723
sI3733
VAxivAsIya
p3724
sI3734
VAxivAsiyoM
p3725
sI3735
VAxyAwmika
p3726
sI3736
VAyAwa
p3727
sI3737
VBAI
p3728
sI3738
VBAMwI
p3729
sI3739
VBARAoM
p3730
sI3740
VBAgIraWI
p3731
sI3741
VBAgoM
p3732
sI3742
VBAlU
p3733
sI3743
VBArawavarRa
p3734
sI3744
VBAtiyA
p3735
sI3745
VBAvABivyakwi
p3736
sI3746
VBAvanAez
p3737
sI3747
VBAwi
p3738
sI3748
VBAzwi
p3739
sI3749
VBIdZaBAdZa
p3740
sI3750
VBIgA
p3741
sI3751
VBIma
p3742
sI3752
VBUBAga
p3743
sI3753
VBUkaMpa
p3744
sI3754
VBUlane
p3745
sI3755
VBUmigawa
p3746
sI3756
VBUmikA
p3747
sI3757
VBUmikAez
p3748
sI3758
VBUwapUrva
p3749
sI3759
VBaNdZAra
p3750
sI3760
VBagasUnAWa
p3751
sI3761
VBakwa
p3752
sI3762
VBalI
p3753
sI3763
VBalIBAMwi
p3754
sI3764
VBaramOra
p3755
sI3765
VBarawa
p3756
sI3766
VBarawe
p3757
sI3767
VBarose
p3758
sI3768
VBarwI
p3759
sI3769
VBataka
p3760
sI3770
VBatakanA
p3761
sI3771
VBatakane
p3762
sI3772
VBavAna
p3763
sI3773
VBava
p3764
sI3774
VBedZiye
p3765
sI3775
VBeja
p3766
sI3776
VBejeM
p3767
sI3777
VBesama
p3768
sI3778
VBexoM
p3769
sI3779
VBikRu
p3770
sI3780
VBikRuka
p3771
sI3781
VBiwwIya
p3772
sI3782
VBogA
p3773
sI3783
VBojanAlayoM
p3774
sI3784
VBopAla
p3775
sI3785
VBulAkara
p3776
sI3786
VBullA
p3777
sI3787
VBunA
p3778
sI3788
VCAI
p3779
sI3789
VCAne
p3780
sI3790
VCApane
p3781
sI3791
VCAvanI
p3782
sI3792
VCAveM
p3783
sI3793
VCAwA
p3784
sI3794
VCAyA
p3785
sI3795
VCAyAxAra
p3786
sI3796
VCAye
p3787
sI3797
VCAzva
p3788
sI3798
VCIlakara
p3789
sI3799
VCInA
p3790
sI3800
VCUne
p3791
sI3801
VCUtA
p3792
sI3802
VCUta
p3793
sI3803
VCUtane
p3794
sI3804
VCUwA
p3795
sI3805
VCa
p3796
sI3806
VCaMtanI
p3797
sI3807
VCawarInumA
p3798
sI3808
VCawoM
p3799
sI3809
VCawrapawi
p3800
sI3810
VCedZa
p3801
sI3811
VCerI
p3802
sI3812
VCiCale
p3803
sI3813
VCipI
p3804
sI3814
VCipawe
p3805
sI3815
VCodZI
p3806
sI3816
VCoje
p3807
sI3817
VCupe
p3808
sI3818
VCutti
p3809
sI3819
VDAMcA
p3810
sI3820
VDAMce
p3811
sI3821
VDAbA
p3812
sI3822
VDAbe
p3813
sI3823
VDAboM
p3814
sI3824
VDAla
p3815
sI3825
VDIle
p3816
sI3826
VDUMDA
p3817
sI3827
VDUMDa
p3818
sI3828
VDaMga
p3819
sI3829
VDaka
p3820
sI3830
VDalAna
p3821
sI3831
VDalane
p3822
sI3832
VDale
p3823
sI3833
VDera
p3824
sI3834
VDulAI
p3825
sI3835
VEMgala
p3826
sI3836
VESiyA
p3827
sI3837
VEktiva
p3828
sI3838
VEktivitIjZa
p3829
sI3839
VElabarta
p3830
sI3840
VEliPZeMtA
p3831
sI3841
VEliPeMta
p3832
sI3842
VEmsatardama
p3833
sI3843
VGAnA
p3834
sI3844
VGUMtI
p3835
sI3845
VGUmA
p3836
sI3846
VGUmawA
p3837
sI3847
VGaKAra
p3838
sI3848
VGabarA
p3839
sI3849
VGabarAeM
p3840
sI3850
VGabarAhata
p3841
sI3851
VGanA
p3842
sI3852
VGaniRTawA
p3843
sI3853
VGarAne
p3844
sI3854
VGaroM
p3845
sI3855
VGata
p3846
sI3856
VGatanAeM
p3847
sI3857
VGatanAsWala
p3848
sI3858
VGatanI
p3849
sI3859
VGatane
p3850
sI3860
VGategI
p3851
sI3861
VGirane
p3852
sI3862
VGise
p3853
sI3863
VGodZe
p3854
sI3864
VGulI
p3855
sI3865
VGumAvaxAra
p3856
sI3866
VGumAwe
p3857
sI3867
VGummakadZoM
p3858
sI3868
VGusawe
p3859
sI3869
VGutana
p3860
sI3870
VI.
p3861
sI3871
VISvarIya
p3862
sI3872
VIkolOYjikala
p3863
sI3873
VIrRyA
p3864
sI3874
VIsAiyoM
p3865
sI3875
VIsavIM
p3866
sI3876
VIstarna
p3867
sI3877
VIsvIM
p3868
sI3878
VIta
p3869
sI3879
VJAMkane
p3870
sI3880
VJAdZa
p3871
sI3881
VJAzkI
p3872
sI3882
VJAzsI
p3873
sI3883
VJIlA
p3874
sI3884
VJUle
p3875
sI3885
VJUma
p3876
sI3886
VJaMJata
p3877
sI3887
VJaMde
p3878
sI3888
VJadZI
p3879
sI3889
VJagadZe
p3880
sI3890
VJalakawA
p3881
sI3891
VJapakAne
p3882
sI3892
VJapakane
p3883
sI3893
VJaranoM
p3884
sI3894
VJatakA
p3885
sI3895
VJela
p3886
sI3896
VJiJakawe
p3887
sI3897
VJilamilAhata
p3888
sI3898
VJilamilAwe
p3889
sI3899
VJoMka
p3890
sI3900
VJopadiyAM
p3891
sI3901
VJuMJalAhata
p3892
sI3902
VJunsI
p3893
sI3903
VJuraJurI
p3894
sI3904
VKAI
p3895
sI3905
VKAjiyAra
p3896
sI3906
VKAmoSI
p3897
sI3907
VKAsiyawoM
p3898
sI3908
VKAxima
p3899
sI3909
VKIMcA
p3900
sI3910
VKIMca
p3901
sI3911
VKUbI
p3902
sI3912
VKUnI
p3903
sI3913
VKUzKAra
p3904
sI3914
VKZAsa
p3905
sI3915
VKaMboM
p3906
sI3916
VKaMdahara
p3907
sI3917
VKaMdaharoM
p3908
sI3918
VKajAnA
p3909
sI3919
VKajZiyAra
p3910
sI3920
VKajiyAra
p3911
sI3921
VKalIlI
p3912
sI3922
VKalala
p3913
sI3923
VKapadZA
p3914
sI3924
VKarIxArI
p3915
sI3925
VKarIxAxarI
p3916
sI3926
VKarIxawI
p3917
sI3927
VKarIxeM
p3918
sI3928
VKaragoSa
p3919
sI3929
VKarcanA
p3920
sI3930
VKatimA
p3921
sI3931
VKawaranAka
p3922
sI3932
VKawaroM
p3923
sI3933
VKaxAnoM
p3924
sI3934
VKayAla
p3925
sI3935
VKelanA
p3926
sI3936
VKelawA
p3927
sI3937
VKelawe
p3928
sI3938
VKeloM
p3929
sI3939
VKene
p3930
sI3940
VKerApAWara
p3931
sI3941
VKidZakI
p3932
sI3942
VKikasA
p3933
sI3943
VKilAeM
p3934
sI3944
VKilOne
p3935
sI3945
VKila
p3936
sI3946
VKilawI
p3937
sI3947
VKiwAba
p3938
sI3948
VKojA
p3939
sI3949
VKojane
p3940
sI3950
VKokara
p3941
sI3951
VKolakara
p3942
sI3952
VKoleM
p3943
sI3953
VKonA
p3944
sI3954
VKuSanumA
p3945
sI3955
VKuSiyoM
p3946
sI3956
VKukarI
p3947
sI3957
VKulI
p3948
sI3958
VKula
p3949
sI3959
VKulane
p3950
sI3960
VKulavAyA
p3951
sI3961
VKurAka
p3952
sI3962
VKvAjAsAhaba
p3953
sI3963
VKyAwi
p3954
sI3964
VORaXIya
p3955
sI3965
VOYParoM
p3956
sI3966
VOYPisara
p3957
sI3967
VOYPisaroM
p3958
sI3968
VOYPisoM
p3959
sI3969
VOYbjaravetrI
p3960
sI3970
VOYbjarveSana
p3961
sI3971
VOYdiyaMsa
p3962
sI3972
VOYdiyo
p3963
sI3973
VOYila
p3964
sI3974
VOYkirda
p3965
sI3975
VOYksaParda
p3966
sI3976
VOYltityUda
p3967
sI3977
VOYnalAina
p3968
sI3978
VOYparetiMga
p3969
sI3979
VOYrPaneja
p3970
sI3980
VOYraMgAbAxa
p3971
sI3981
VOYramArta
p3972
sI3982
VOYrganAjda
p3973
sI3983
VOYrientala
p3974
sI3984
VOYrta
p3975
sI3985
VOYstrica
p3976
sI3986
VOjZAra
p3977
sI3987
VOpacArikawAez
p3978
sI3988
VOrZa
p3979
sI3989
VOraMgAbAxa
p3980
sI3990
VOsawa
p3981
sI3991
VOsawana
p3982
sI3992
VOta
p3983
sI3993
VPAgU
p3984
sI3994
VPAila
p3985
sI3995
VPAinEMSala
p3986
sI3996
VPAsalA
p3987
sI3997
VPAtaka
p3988
sI3998
VPAuMdeSana
p3989
sI3999
VPAyaxe
p3990
sI4000
VPAyaxemaMxa
p3991
sI4001
VPEMsI
p3992
sI4002
VPEktara
p3993
sI4003
VPEktrIja
p3994
sI4004
VPElAe
p3995
sI4005
VPEla
p3996
sI4006
VPEna
p3997
sI4007
VPEsale
p3998
sI4008
VPIda
p3999
sI4009
VPIdiMga
p4000
sI4010
VPIla
p4001
sI4011
VPIwe
p4002
sI4012
VPOYka
p4003
sI4013
VPOYlo
p4004
sI4014
VPOYloiMga
p4005
sI4015
VPOYra
p4006
sI4016
VPOYrmala
p4007
sI4017
VPOrana
p4008
sI4018
VPUlI
p4009
sI4019
VPUleMge
p4010
sI4020
VPUloM
p4011
sI4021
VPZawehapura
p4012
sI4022
VPaMgala
p4013
sI4023
VPaMkSana
p4014
sI4024
VPaMsa
p4015
sI4025
VPabeMgI
p4016
sI4026
VPaharAyA
p4017
sI4027
VPajZala
p4018
sI4028
VPalI
p4019
sI4029
VPalaka
p4020
sI4030
VPalakanumA
p4021
sI4031
VPalasvarupa
p4022
sI4032
VParja
p4023
sI4033
VParma
p4024
sI4034
VParmeM
p4025
sI4035
VPasaloM
p4026
sI4036
VPasilatI
p4027
sI4037
VPatane
p4028
sI4038
VPate
p4029
sI4039
VPavvAre
p4030
sI4040
VPawehapura
p4031
sI4041
VPeMkane
p4032
sI4042
VPedareSana
p4033
sI4043
VPemasa
p4034
sI4044
VPeminA
p4035
sI4045
VPerabaxala
p4036
sI4046
VPexara
p4037
sI4047
VPijAoM
p4038
sI4048
VPilIpIMsa
p4039
sI4049
VPilmakAroM
p4040
sI4050
VPirAka
p4041
sI4051
VPirawe
p4042
sI4052
VPirojA
p4043
sI4053
VPita
p4044
sI4054
VPlESa
p4045
sI4055
VPlEta
p4046
sI4056
VPlOYpa
p4047
sI4057
VPleksibala
p4048
sI4058
VPlipa
p4049
sI4059
VPlorikana
p4050
sI4060
VPora
p4051
sI4061
VPorsa
p4052
sI4062
VPotogrAParoM
p4053
sI4063
VPotokOYpI
p4054
sI4064
VPrAMsIsiyoM
p4055
sI4065
VPrAida
p4056
sI4066
VPrIdama
p4057
sI4067
VPrUta
p4058
sI4068
VPreMda
p4059
sI4069
VPreSa
p4060
sI4070
VPulke
p4061
sI4071
VPurasawa
p4062
sI4072
VPursawa
p4063
sI4073
VPutabOYla
p4064
sI4074
VPutapriMtsa
p4065
sI4075
VPutaviyarsa
p4066
sI4076
VPyUla
p4067
sI4077
VRTDC
p4068
sI4078
VSAKAeM
p4069
sI4079
VSAKa
p4070
sI4080
VSASvawa
p4071
sI4081
VSAbxika
p4072
sI4082
VSAkunwalama
p4073
sI4083
VSAkyamuni
p4074
sI4084
VSAlinI
p4075
sI4085
VSAmI
p4076
sI4086
VSAmeM
p4077
sI4087
VSAmiyAne
p4078
sI4088
VSAna
p4079
sI4089
VSAnwa
p4080
sI4090
VSArIrika
p4081
sI4091
VSAraxA
p4082
sI4092
VSAsaka
p4083
sI4093
VSAsanakAloM
p4084
sI4094
VSAswra
p4085
sI4095
VSAxI
p4086
sI4096
VSEliyoM
p4087
sI4097
VSISe
p4088
sI4098
VSIwala
p4089
sI4099
VSIwaqwu
p4090
sI4100
VSOYpsa
p4091
sI4101
VSOYta
p4092
sI4102
VSOryA
p4093
sI4103
VSU
p4094
sI4104
VSUtiMga
p4095
sI4105
VSaKsiyawa
p4096
sI4106
VSaMKiyoM
p4097
sI4107
VSahajAxe
p4098
sI4108
VSahaxa
p4099
sI4109
VSaka
p4100
sI4110
VSakwi
p4101
sI4111
VSakwimawI
p4102
sI4112
VSamila
p4103
sI4113
VSana
p4104
sI4114
VSanivAra
p4105
sI4115
VSarIPa
p4106
sI4116
VSarIka
p4107
sI4117
VSaraNa
p4108
sI4118
VSarmanAka
p4109
sI4119
VSarwoM
p4110
sI4120
VSaswroM
p4111
sI4121
VSawAbxiyoM
p4112
sI4122
VSeKa
p4113
sI4123
VSePa
p4114
sI4124
VSeRAMka
p4115
sI4125
VSeRa
p4116
sI4126
VSedyUla
p4117
sI4127
VSerAGAta
p4118
sI4128
VSera
p4119
sI4129
VSeroM
p4120
sI4130
VSikArI
p4121
sI4131
VSikAyaweM
p4122
sI4132
VSilA
p4123
sI4133
VSilaWOYrna
p4124
sI4134
VSilpagrAma
p4125
sI4135
VSilpakAroM
p4126
sI4136
VSivagaMgA
p4127
sI4137
VSivaxAna
p4128
sI4138
VSoBAyAwrA
p4129
sI4139
VSoBAyamAna
p4130
sI4140
VSoja
p4131
sI4141
VSopIsijZa
p4132
sI4142
VSorUma
p4133
sI4143
VSqMKalAoM
p4134
sI4144
VSrAvaswi
p4135
sI4145
VSrImawi
p4136
sI4146
VSraMKalA
p4137
sI4147
VSravaNabelAgolA
p4138
sI4148
VSraxXA
p4139
sI4149
VSrazKalA
p4140
sI4150
VSreNiyoM
p4141
sI4151
VSuBa
p4142
sI4152
VSuRkawA
p4143
sI4153
VSuklA
p4144
sI4154
VSulkoM
p4145
sI4155
VSumAra
p4146
sI4156
VSurUAwa
p4147
sI4157
VSuxXa
p4148
sI4158
VSvasana
p4149
sI4159
VTAkura
p4150
sI4160
VTIkaTAka
p4151
sI4161
VTaMDA
p4152
sI4162
VTaMdA
p4153
sI4163
VTaMde
p4154
sI4164
VTaharAvoM
p4155
sI4165
VTaharUMgA
p4156
sI4166
VTaharakara
p4157
sI4167
VTaharanA
p4158
sI4168
VTaharawe
p4159
sI4169
VTikAnA
p4160
sI4170
VTikAne
p4161
sI4171
VTikAnoM
p4162
sI4172
VUla
p4163
sI4173
VUnI
p4164
sI4174
VUtakamaNda
p4165
sI4175
VUzcAiyAz
p4166
sI4176
VUzcAiyoM
p4167
sI4177
VWAca
p4168
sI4178
VWAnIramukuma
p4169
sI4179
VWImapArka
p4170
sI4180
VWakA
p4171
sI4181
VWakakara
p4172
sI4182
VWake
p4173
sI4183
VWakemAMxe
p4174
sI4184
VWamAI
p4175
sI4185
VWenaWuka
p4176
sI4186
VWerapIja
p4177
sI4187
VWilakkama
p4178
sI4188
VWirakie
p4179
sI4189
VWrila
p4180
sI4190
VWriliMga
p4181
sI4191
VWrombosisa
p4182
sI4192
VWupakA
p4183
sI4193
VXArA
p4184
sI4194
VXAra
p4185
sI4195
VXImI
p4186
sI4196
VXOMkanI
p4187
sI4197
VXOlA
p4188
sI4198
VXOlAXAra
p4189
sI4199
VXOlAXara
p4190
sI4200
VXOlaCInA
p4191
sI4201
VXUmaXAma
p4192
sI4202
VXaje
p4193
sI4203
VXanI
p4194
sI4204
VXana
p4195
sI4205
VXarmA
p4196
sI4206
VXarmAnuRTAna
p4197
sI4207
VXarmagraMWoM
p4198
sI4208
VXarmoM
p4199
sI4209
VXaroharoM
p4200
sI4210
VXoKebAjoM
p4201
sI4211
VXuMXalake
p4202
sI4212
VXuMXale
p4203
sI4213
VXuzXalI
p4204
sI4214
VXvaja
p4205
sI4215
VXvaniyAz
p4206
sI4216
VXvaniyoM
p4207
sI4217
V_/NNPC_
p4208
sI4218
V_/NN_
p4209
sI4219
V_/VAUX_
p4210
sI4220
VaBayavana
p4211
sI4221
VaBigamya
p4212
sI4222
VaBijFAna
p4213
sI4223
VaBileKAgAroM
p4214
sI4224
VaBiliKiwa
p4215
sI4225
VaBinanxana
p4216
sI4226
VaByAraNya
p4217
sI4227
VaByAsa
p4218
sI4228
VaByuxaya
p4219
sI4229
VaCUwe
p4220
sI4230
VaGIkRaka
p4221
sI4231
VaGoRiwa
p4222
sI4232
VaKabAroM
p4223
sI4233
VaMXerA
p4224
sI4234
VaMXere
p4225
sI4235
VaMbara
p4226
sI4236
VaMbikA
p4227
sI4237
VaMdara
p4228
sI4238
VaMdaragrAuMda
p4229
sI4239
VaMgAroM
p4230
sI4240
VaMgUTe
p4231
sI4241
VaMkura
p4232
sI4242
VaMpAyaroM
p4233
sI4243
VaMrwagawa
p4234
sI4244
VaMxarunI
p4235
sI4245
VaParavAwa
p4236
sI4246
VaPordobala
p4237
sI4247
VaPrIkana
p4238
sI4248
VaSikRiwa
p4239
sI4249
VaTaKeliyoM
p4240
sI4250
VaWOYritI
p4241
sI4251
VaWarvavexa
p4242
sI4252
VaXIna
p4243
sI4253
VaXara
p4244
sI4254
VaXikawama
p4245
sI4255
VaXiniyama
p4246
sI4256
VaXivqkkoM
p4247
sI4257
VaXomuKI
p4248
sI4258
VaXyakRa
p4249
sI4259
VabAXiwa
p4250
sI4260
VabI
p4251
sI4261
VabU
p4252
sI4262
Vabula
p4253
sI4263
Vabxula
p4254
sI4264
VacaMBiwa
p4255
sI4265
VaddZA
p4256
sI4266
VaddoM
p4257
sI4267
VagAmI
p4258
sI4268
VagalA
p4259
sI4269
VagamyawA
p4260
sI4270
Vagaswya
p4261
sI4271
VagawwI
p4262
sI4272
Vagni
p4263
sI4273
Vagra
p4264
sI4274
VagrejoM
p4265
sI4275
Vahamiyawa
p4266
sI4276
VahiMsA
p4267
sI4277
VajIba
p4268
sI4278
VajIbogarIba
p4269
sI4279
Vajaba
p4270
sI4280
VajanwA
p4271
sI4281
VakAxamI
p4272
sI4282
VakRaraSaH
p4273
sI4283
VakRayavata
p4274
sI4284
Vakveriama
p4275
sI4285
ValIgaDZa
p4276
sI4286
ValOrA
p4277
sI4287
Vala
p4278
sI4288
ValaMkArika
p4279
sI4289
ValaMkqwa
p4280
sI4290
Valabama
p4281
sI4291
ValakanaMxA
p4282
sI4292
ValamArI
p4283
sI4293
Valamaswa
p4284
sI4294
ValapawWara
p4285
sI4295
Valartanesa
p4286
sI4296
ValasAe
p4287
sI4297
ValavixA
p4288
sI4298
Valgero
p4289
sI4299
Valipe
p4290
sI4300
Valkohalika
p4291
sI4301
Valoyasasa
p4292
sI4302
ValpAvaXi
p4293
sI4303
ValpasaMKyaka
p4294
sI4304
ValtrA
p4295
sI4305
VamIra
p4296
sI4306
VamUmana
p4297
sI4307
Vamala
p4298
sI4308
Vamara
p4299
sI4309
VamarakaWA
p4300
sI4310
Vamediyasa
p4301
sI4311
VamerikI
p4302
sI4312
VamiwABa
p4303
sI4313
Vamiwa
p4304
sI4314
Vamqwasara
p4305
sI4315
VanaCue
p4306
sI4316
VanaMxiwA
p4307
sI4317
VanahonI
p4308
sI4318
VanajAna
p4309
sI4319
Vanamane
p4310
sI4320
Vanamola
p4311
sI4321
Vanavarawa
p4312
sI4322
VandamAna
p4313
sI4323
Vanila
p4314
sI4324
VanivArya
p4315
sI4325
Vaniyamiwa
p4316
sI4326
VanoKe
p4317
sI4327
VanuBUwiyoM
p4318
sI4328
VanuSAsana
p4319
sI4329
VanumAnawaH
p4320
sI4330
Vanupama
p4321
sI4331
VanurAXApurA
p4322
sI4332
VanurUpa
p4323
sI4333
Vanurupa
p4324
sI4334
Vanusariwa
p4325
sI4335
VanveRaNaparaka
p4326
sI4336
Vanwa
p4327
sI4337
VanwaHsWalIya
p4328
sI4338
VanxarUnI
p4329
sI4339
VapOYiMta
p4330
sI4340
VapUrva
p4331
sI4341
Vapagreda
p4332
sI4342
VapanAne
p4333
sI4343
VaparAXa
p4334
sI4344
VaparAXiyoM
p4335
sI4345
VapekRA
p4336
sI4346
VapravAhI
p4337
sI4347
Vaprawima
p4338
sI4348
VarXa
p4339
sI4349
VaraMbolA
p4340
sI4350
VaraWunakala
p4341
sI4351
VaramAna
p4342
sI4352
Varbana
p4343
sI4353
VareMjameMta
p4344
sI4354
VarebiyA
p4345
sI4355
Varjiwa
p4346
sI4356
VarvA
p4347
sI4357
VarxXakumBa
p4348
sI4358
Varxxa
p4349
sI4359
VasAXAraNa
p4350
sI4360
VasAXya
p4351
sI4361
VasImiwa
p4352
sI4362
VasaMKya
p4353
sI4363
VasaPa
p4354
sI4364
VasaPala
p4355
sI4365
Vasahaja
p4356
sI4366
VasavAna
p4357
sI4367
VaspawAla
p4358
sI4368
VasurakRA
p4359
sI4369
VasurakRiwa
p4360
sI4370
Vaswiwva
p4361
sI4371
VatEca
p4362
sI4372
VatakanA
p4363
sI4373
VatalAMtA
p4364
sI4374
VatrEkta
p4365
sI4375
Vavalokana
p4366
sI4376
VavasWA
p4367
sI4377
VavasWiwa
p4368
sI4378
VavasWiwi
p4369
sI4379
VavawaraNa
p4370
sI4380
VaviBAjya
p4371
sI4381
Vawa
p4372
sI4382
VawiWi
p4373
sI4383
VawipUrva
p4374
sI4384
Vawyuwwama
p4375
sI4385
VaxaBuwa
p4376
sI4386
Vaxaraka
p4377
sI4387
VaxqSya
p4378
sI4388
VaxviwIya
p4379
sI4389
VbADZa
p4380
sI4390
VbAGoM
p4381
sI4391
VbAI
p4382
sI4392
VbAMXanA
p4383
sI4393
VbAMXane
p4384
sI4394
VbAMXawe
p4385
sI4395
VbAMsa
p4386
sI4396
VbAMsoM
p4387
sI4397
VbAMtane
p4388
sI4398
VbAMtegI
p4389
sI4399
VbANagaMgA
p4390
sI4400
VbAWiMga
p4391
sI4401
VbAbA
p4392
sI4402
VbAbara
p4393
sI4403
VbAdZI
p4394
sI4404
VbAdZamera
p4395
sI4405
VbAgAna
p4396
sI4406
VbAgIcoM
p4397
sI4407
VbAhubalI
p4398
sI4408
VbAhya
p4399
sI4409
VbAikara
p4400
sI4410
VbAipAsa
p4401
sI4411
VbAjAroM
p4402
sI4412
VbAjZAra
p4403
sI4413
VbAjiyoM
p4404
sI4414
VbAjoM
p4405
sI4415
VbAlAoM
p4406
sI4416
VbAlU
p4407
sI4417
VbAlaka
p4408
sI4418
VbAlukA
p4409
sI4419
VbArAlAcA
p4410
sI4420
VbArI
p4411
sI4421
VbAraha
p4412
sI4422
VbArgena
p4413
sI4423
VbArgeniMga
p4414
sI4424
VbAroM
p4415
sI4425
VbArtara
p4416
sI4426
VbAsavanagudZI
p4417
sI4427
VbAsketa
p4418
sI4428
VbAskita
p4419
sI4429
VbAtU
p4420
sI4430
VbAta
p4421
sI4431
VbAvana
p4422
sI4432
VbAyo
p4423
sI4433
VbAztA
p4424
sI4434
VbAzte
p4425
sI4435
VbEMgana
p4426
sI4436
VbEMkara
p4427
sI4437
VbEMkoM
p4428
sI4438
VbETA
p4429
sI4439
VbETaka
p4430
sI4440
VbETawe
p4431
sI4441
VbETegA
p4432
sI4442
VbEdamiMtana
p4433
sI4443
VbEgeja
p4434
sI4444
VbEka
p4435
sI4445
VbEktriyana
p4436
sI4446
VbElagAma
p4437
sI4447
VbEtariyAM
p4438
sI4448
VbEtrI
p4439
sI4449
VbIdZI
p4440
sI4450
VbIdana
p4441
sI4451
VbIjApura
p4442
sI4452
VbIjiMga
p4443
sI4453
VbIligirI
p4444
sI4454
VbImA
p4445
sI4455
VbImArI
p4446
sI4456
VbImAriyoM
p4447
sI4457
VbIna
p4448
sI4458
VbIra
p4449
sI4459
VbIta
p4450
sI4460
VbIvI
p4451
sI4461
VbIwa
p4452
sI4462
VbIyara
p4453
sI4463
VbOXxa
p4454
sI4464
VbOYtEnikala
p4455
sI4465
VbOYya
p4456
sI4466
VbOYyakAta
p4457
sI4467
VbOxGa
p4458
sI4468
VbOxXavAxa
p4459
sI4469
VbUMxa
p4460
sI4470
VbUte
p4461
sI4471
VbUtiyoM
p4462
sI4472
VbaDAwA
p4463
sI4473
VbaDZA
p4464
sI4474
VbaDZAe
p4465
sI4475
VbaDZAeM
p4466
sI4476
VbaDZAkara
p4467
sI4477
VbaDZI
p4468
sI4478
VbaDZanA
p4469
sI4479
VbaDZawa
p4470
sI4480
VbaDZiye
p4471
sI4481
VbaKUbI
p4472
sI4482
VbaMXa
p4473
sI4483
VbaMgAlI
p4474
sI4484
VbaMgale
p4475
sI4485
VbaMgalora
p4476
sI4486
VbaMgaluru
p4477
sI4487
VbaMtI
p4478
sI4488
VbaMxara
p4479
sI4489
VbaMxaragAha
p4480
sI4490
VbaSarwe
p4481
sI4491
VbabUna
p4482
sI4492
Vbabala
p4483
sI4493
VbacAva
p4484
sI4494
VbacAwI
p4485
sI4495
Vbacakara
p4486
sI4496
VbacanA
p4487
sI4497
Vbacapana
p4488
sI4498
Vbacawa
p4489
sI4499
Vbaccana
p4490
sI4500
VbaceMge
p4491
sI4501
VbadZOxA
p4492
sI4502
VbadZoM
p4493
sI4503
Vbade
p4494
sI4504
VbagEra
p4495
sI4505
VbagIcoM
p4496
sI4506
VbahAnA
p4497
sI4507
VbahAva
p4498
sI4508
VbahAwI
p4499
sI4509
VbahAxurI
p4500
sI4510
VbahakAve
p4501
sI4511
VbahalAne
p4502
sI4512
Vbahane
p4503
sI4513
Vbahawe
p4504
sI4514
Vbahula
p4505
sI4515
VbahuraMgA
p4506
sI4516
VbahuwAyawa
p4507
sI4517
VbajA
p4508
sI4518
VbajAja
p4509
sI4519
VbajAwe
p4510
sI4520
Vbala
p4511
sI4521
VbalaKAwA
p4512
sI4522
VbalasOra
p4513
sI4523
VbalavaMwa
p4514
sI4524
Vbalirna
p4515
sI4525
VbaluA
p4516
sI4526
VbamabArI
p4517
sI4527
VbanAnA
p4518
sI4528
VbanArasa
p4519
sI4529
VbanAye
p4520
sI4530
Vbanakara
p4521
sI4531
VbananI
p4522
sI4532
VbanarjI
p4523
sI4533
VbanavA
p4524
sI4534
VbanawA
p4525
sI4535
Vbanawe
p4526
sI4536
VbanneraGAta
p4527
sI4537
VbanxarapUzCa
p4528
sI4538
VbarAmaxA
p4529
sI4539
VbarPIle
p4530
sI4540
VbarPZa
p4531
sI4541
Vbarabasa
p4532
sI4542
VbaravA
p4533
sI4543
VbarawanA
p4534
sI4544
Vbargara
p4535
sI4545
VbarmA
p4536
sI4546
VbarmiMGama
p4537
sI4547
VbarxASwa
p4538
sI4548
VbasAne
p4539
sI4549
VbasAyA
p4540
sI4550
VbasI
p4541
sI4551
VbasIM
p4542
sI4552
Vbasane
p4543
sI4553
Vbasara
p4544
sI4554
VbaseM
p4545
sI4555
VbasilikA
p4546
sI4556
VbaswiyoM
p4547
sI4557
VbawAe
p4548
sI4558
VbawAnA
p4549
sI4559
VbawAne
p4550
sI4560
VbawaKa
p4551
sI4561
VbaxXa
p4552
sI4562
VbaxalAvoM
p4553
sI4563
VbaxalawA
p4554
sI4564
VbayAM
p4555
sI4565
VbeMgalurU
p4556
sI4566
VbeMgaluru
p4557
sI4567
VbeSakImawI
p4558
sI4568
VbeSumAra
p4559
sI4569
VbedZe
p4560
sI4570
Vbekda
p4561
sI4571
Vbelta
p4562
sI4572
Vbeltsa
p4563
sI4573
VbepanAha
p4564
sI4574
VbesabrI
p4565
sI4575
Vbestila
p4566
sI4576
Vbetara
p4567
sI4577
VbewarawIba
p4568
sI4578
VbewavA
p4569
sI4579
VbiCue
p4570
sI4580
VbiKera
p4571
sI4581
VbiMxu
p4572
sI4582
VbidZalA
p4573
sI4583
VbihAra
p4574
sI4584
Vbijanasa
p4575
sI4585
Vbila
p4576
sI4586
VbildiMgoM
p4577
sI4587
VbillI
p4578
sI4588
VbinxuoM
p4579
sI4589
VbirAxarI
p4580
sI4590
Vbiskita
p4581
sI4591
Vbiswara
p4582
sI4592
VbiwAI
p4583
sI4593
VbiwAeM
p4584
sI4594
VbiwAkara
p4585
sI4595
Vbiyara
p4586
sI4596
VblOYka
p4587
sI4597
VblU
p4588
sI4598
VboJa
p4589
sI4599
VboXisawva
p4590
sI4600
Vbojjakonda
p4591
sI4601
VbolA
p4592
sI4602
VbolI
p4593
sI4603
Vbolane
p4594
sI4604
VbonaPAyara
p4595
sI4605
Vbonasa
p4596
sI4606
VborA
p4597
sI4607
Vbora
p4598
sI4608
VboriMga
p4599
sI4609
Vboriyawa
p4600
sI4610
Vbowala
p4601
sI4611
VbowsavAnA
p4602
sI4612
Vbqhaspawi
p4603
sI4613
VbrAMca
p4604
sI4614
VbrEMda
p4605
sI4615
VbrEMdeda
p4606
sI4616
VbrEMdsa
p4607
sI4617
VbrIxiMga
p4608
sI4618
VbrOYdavOYka
p4609
sI4619
VbraSa
p4610
sI4620
Vbrahma
p4611
sI4621
VbrajaBUmi
p4612
sI4622
Vbresta
p4613
sI4623
VbriMga
p4614
sI4624
VbritiSarsa
p4615
sI4625
VbritiSavAsiyoM
p4616
sI4626
Vbrokareja
p4617
sI4627
VbuMxelaKaMda
p4618
sI4628
VbuXavAra
p4619
sI4629
Vbukda
p4620
sI4630
VbukiMgsa
p4621
sI4631
Vbukita
p4622
sI4632
VbulA
p4623
sI4633
Vbulanxa
p4624
sI4634
Vbunane
p4625
sI4635
VburA
p4626
sI4636
VburjoM
p4627
sI4637
VbuxXi
p4628
sI4638
VbyUro
p4629
sI4639
VcAMga
p4630
sI4640
VcAMseja
p4631
sI4641
VcAMxI
p4632
sI4642
VcAhakara
p4633
sI4643
VcAhane
p4634
sI4644
VcAhawa
p4635
sI4645
VcAinA
p4636
sI4646
VcAkU
p4637
sI4647
VcAmuMdA
p4638
sI4648
VcAmuMdeSvarI
p4639
sI4649
VcAmuNdI
p4640
sI4650
VcAmuNdeSvarI
p4641
sI4651
VcArAgAhI
p4642
sI4652
VcArlsa
p4643
sI4653
VcArma
p4644
sI4654
VcAtane
p4645
sI4655
VcEMbara
p4646
sI4656
VcEmpiyanaSipoM
p4647
sI4657
VcEnaloM
p4648
sI4658
VcEpala
p4649
sI4659
VcEwya
p4650
sI4660
VcIPa
p4651
sI4661
VcIjZeM
p4652
sI4662
VcInI
p4653
sI4663
VcIrawI
p4654
sI4664
VcIwe
p4655
sI4665
VcO
p4656
sI4666
VcOKamBA
p4657
sI4667
VcOKata
p4658
sI4668
VcOWI
p4659
sI4669
VcOWe
p4660
sI4670
VcOXArA
p4661
sI4671
VcOXavIM
p4662
sI4672
VcOYpiMga
p4663
sI4673
VcOYpxama
p4664
sI4674
VcOdZI
p4665
sI4675
VcOhAna
p4666
sI4676
VcOkI
p4667
sI4677
VcOka
p4668
sI4678
VcUhe
p4669
sI4679
VcUja
p4670
sI4680
VcUkane
p4671
sI4681
VcUlhI
p4672
sI4682
VcUra
p4673
sI4683
VcaDZAve
p4674
sI4684
VcaDZAyA
p4675
sI4685
VcaDZI
p4676
sI4686
VcaDZa
p4677
sI4687
VcaDZakara
p4678
sI4688
VcaDZawe
p4679
sI4689
VcaDZe
p4680
sI4690
VcaKane
p4681
sI4691
VcaKeM
p4682
sI4692
VcaMgalimiWaMga
p4683
sI4693
VcaMxana
p4684
sI4694
VcaMxraBagA
p4685
sI4695
VcaMxraSeKara
p4686
sI4696
VcaMxramA
p4687
sI4697
VcaMxravaram
p4688
sI4698
VcaSmA
p4689
sI4699
VcabUwaroM
p4690
sI4700
VcahacahAnA
p4691
sI4701
Vcakallasa
p4692
sI4702
VcalAwe
p4693
sI4703
VcalI
p4694
sI4704
Vcalahapahala
p4695
sI4705
VcaleMge
p4696
sI4706
VcalegA
p4697
sI4707
VcamakIloM
p4698
sI4708
VcamakaxAra
p4699
sI4709
VcambA
p4700
sI4710
VcanxramA
p4701
sI4711
VcanxravaMSIya
p4702
sI4712
VcaragAhI
p4703
sI4713
Vcarama
p4704
sI4714
VcaramarAwe
p4705
sI4715
VcaranarAjAgAra
p4706
sI4716
Vcarciwa
p4707
sI4717
VcaskA
p4708
sI4718
VcatAI
p4709
sI4719
VcataKa
p4710
sI4720
Vcatakawe
p4711
sI4721
VcattAmabalama
p4712
sI4722
VcattAne
p4713
sI4723
VcattAneM
p4714
sI4724
VcawurBuja
p4715
sI4725
VcawurvexI
p4716
sI4726
Vcayana
p4717
sI4727
VceMja
p4718
sI4728
Vcekaina
p4719
sI4729
Vceyarsa
p4720
sI4730
VciSawI
p4721
sI4731
VcidZiyAGara
p4722
sI4732
VcikiwsakIya
p4723
sI4733
VcilacilAwI
p4724
sI4734
VcillAhata
p4725
sI4735
VcimawuIpaI
p4726
sI4736
Vcinha
p4727
sI4737
VcirOtI
p4728
sI4738
VcirakAla
p4729
sI4739
VciwrOlI
p4730
sI4740
VciwrakAroM
p4731
sI4741
Vciwriwa
p4732
sI4742
Vcom
p4733
sI4743
Vcota
p4734
sI4744
VcukIM
p4735
sI4745
VcunAva
p4736
sI4746
VcunI
p4737
sI4747
VcunOwiyAz
p4738
sI4748
Vcuna
p4739
sI4749
Vcunakara
p4740
sI4750
VcuneMge
p4741
sI4751
Vcupake
p4742
sI4752
VcuskI
p4743
sI4753
VcuswI
p4744
sI4754
VcutAgI
p4745
sI4755
VdAirektara
p4746
sI4756
VdAita
p4747
sI4757
VdAiva
p4748
sI4758
VdAkapAWera
p4749
sI4759
VdAkkA
p4750
sI4760
VdAlI
p4751
sI4761
VdAla
p4752
sI4762
VdAlanA
p4753
sI4763
VdAlawe
p4754
sI4764
VdAliyAz
p4755
sI4765
VdAyapara
p4756
sI4766
VdAyariyA
p4757
sI4767
VdAyavarsitIja
p4758
sI4768
VdIpa
p4759
sI4769
VdOYktaroM
p4760
sI4770
VdOYkyUmeMta
p4761
sI4771
VdOYkyumeMtsa
p4762
sI4772
VdOYlPiMsa
p4763
sI4773
VdUbane
p4764
sI4774
VdaPala
p4765
sI4775
VdalahOjZI
p4766
sI4776
Vdarane
p4767
sI4777
Vdelhi
p4768
sI4778
Vdenima
p4769
sI4779
VderA
p4770
sI4780
Vdeska
p4771
sI4781
VdestIneSana
p4772
sI4782
Vdeta
p4773
sI4783
Vdevalapa
p4774
sI4784
VdevalapameMta
p4775
sI4785
VdeyarI
p4776
sI4786
VdiPrOYstara
p4777
sI4787
VdiSeja
p4778
sI4788
Vdibeta
p4779
sI4789
Vdidektiva
p4780
sI4790
VdigrI
p4781
sI4791
VdihAidreta
p4782
sI4792
Vdijitala
p4783
sI4793
VdilAina
p4784
sI4794
VdimAMda
p4785
sI4795
VdiplomEtika
p4786
sI4796
VdiskoM
p4787
sI4797
VdiskoWika
p4788
sI4798
VdistaMsa
p4789
sI4799
VdivelapamaMta
p4790
sI4800
Vdivijanala
p4791
sI4801
Vdoma
p4792
sI4802
VdosA
p4793
sI4803
VdrAivaroM
p4794
sI4804
VdrAmEtika
p4795
sI4805
VdrEgana
p4796
sI4806
VdrIma
p4797
sI4807
Vdresija
p4798
sI4808
Vdube
p4799
sI4809
Vdubo
p4800
sI4810
VdugAvA
p4801
sI4811
VdyUreSana
p4802
sI4812
VdyUtIja
p4803
sI4813
Ve.dI.
p4804
sI4814
VeMWonI
p4805
sI4815
VeMbEsadara
p4806
sI4816
VeMgara
p4807
sI4817
VeMjIniyara
p4808
sI4818
VeMkleva
p4809
sI4819
VeMplAija
p4810
sI4820
VeMtI
p4811
sI4821
VeMtalAtika
p4812
sI4822
Vedaleda
p4813
sI4823
VedavAMsda
p4814
sI4824
VedavAijarI
p4815
sI4825
VedaveMcarasa
p4816
sI4826
VediSana
p4817
sI4827
VegjIkyUtiva
p4818
sI4828
VegjOYsta
p4819
sI4829
VegjikyUtiva
p4820
sI4830
VegrImeMta
p4821
sI4831
VehawiyAwa
p4822
sI4832
VejaMsI
p4823
sI4833
VejeMsiyAM
p4824
sI4834
VejeMtsa
p4825
sI4835
VejukeSana
p4826
sI4836
VekASma
p4827
sI4837
VekAkIpana
p4828
sI4838
Vekawra
p4829
sI4839
Vekaxama
p4830
sI4840
Veksa
p4831
sI4841
VeksaceMja
p4832
sI4842
VeksaperimaMta
p4833
sI4843
Veksapesa
p4834
sI4844
Veksaplora
p4835
sI4845
Veksapoja
p4836
sI4846
Veksapresa
p4837
sI4847
VeksesarI
p4838
sI4848
VeksideMta
p4839
sI4849
Veksileretara
p4840
sI4850
VektivitI
p4841
sI4851
VektivitIjZa
p4842
sI4852
Vektivitija
p4843
sI4853
VelIPEMtA
p4844
sI4854
VelakjeMdara
p4845
sI4855
Velisiyama
p4846
sI4856
VelkemI
p4847
sI4857
VenarjI
p4848
sI4858
VenavAyaranameMta
p4849
sI4859
Venklojara
p4850
sI4860
VeranAkulama
p4851
sI4861
VesI
p4852
sI4862
VesosieSaMsa
p4853
sI4863
VeyarakrAPta
p4854
sI4864
VgADZA
p4855
sI4865
VgAWA
p4856
sI4866
VgAdIyoM
p4857
sI4867
VgAdZiyAM
p4858
sI4868
VgAdiyAM
p4859
sI4869
VgAmA
p4860
sI4870
VgAmina
p4861
sI4871
VgArbija
p4862
sI4872
VgArdansa
p4863
sI4873
VgAxa
p4864
sI4874
VgAyI
p4865
sI4875
VgAyaba
p4866
sI4876
VgAyakI
p4867
sI4877
VgAzXI
p4868
sI4878
VgAzvavAsiyoM
p4869
sI4879
VgEMbaliMga
p4870
sI4880
VgEmpo
p4871
sI4881
VgEra
p4872
sI4882
VgEwUra
p4873
sI4883
VgIjA
p4874
sI4884
VgIlI
p4875
sI4885
VgIwA
p4876
sI4886
VgIwoM
p4877
sI4887
VgIyara
p4878
sI4888
VgOYda
p4879
sI4889
VgOmuKa
p4880
sI4890
VgOra
p4881
sI4891
VgOravaSAlI
p4882
sI4892
VgOwama
p4883
sI4893
VgUDZa
p4884
sI4894
VgaDZavAlI
p4885
sI4895
VgaMgAXareSvara
p4886
sI4896
VgaMga
p4887
sI4897
VgaMgate
p4888
sI4898
VgaMgowrI
p4889
sI4899
VgaNeSa
p4890
sI4900
VgaNoM
p4891
sI4901
VgaTana
p4892
sI4902
VgadZagadZAhata
p4893
sI4903
VgahanoM
p4894
sI4904
VgaharA
p4895
sI4905
VgaharI
p4896
sI4906
Vgajanera
p4897
sI4907
VgajenxramokRama
p4898
sI4908
VgalA
p4899
sI4909
VgalAne
p4900
sI4910
VgaliyAre
p4901
sI4911
VgaliyAroM
p4902
sI4912
VgaliyoM
p4903
sI4913
VgarBa
p4904
sI4914
VgarBavawI
p4905
sI4915
VgarIba
p4906
sI4916
VgarIboM
p4907
sI4917
VgaramI
p4908
sI4918
VgardZana
p4909
sI4919
VgarjanA
p4910
sI4920
Vgarva
p4911
sI4921
Vgarviwa
p4912
sI4922
Vgavarnara
p4913
sI4923
VgawiviXi
p4914
sI4924
VgaxxI
p4915
sI4925
VgayIM
p4916
sI4926
VgeMtiMga
p4917
sI4927
Vgeja
p4918
sI4928
VgilAsa
p4919
sI4929
VginIja
p4920
sI4930
Vgine
p4921
sI4931
VgirA
p4922
sI4932
VgirAne
p4923
sI4933
VgirajA
p4924
sI4934
VgirajAGaroM
p4925
sI4935
Vgirakara
p4926
sI4936
Vgirane
p4927
sI4937
VgirawI
p4928
sI4938
Vgirawe
p4929
sI4939
Vglavsa
p4930
sI4940
VgleSiyara
p4931
sI4941
VgledietaroM
p4932
sI4942
VglobalAijeSana
p4933
sI4943
VgoMdoM
p4934
sI4944
Vgolda
p4935
sI4945
VgompA
p4936
sI4946
Vgopa
p4937
sI4947
VgopanIyawA
p4938
sI4948
Vgopurama
p4939
sI4949
VgorI
p4940
sI4950
VgovadZe
p4941
sI4951
VgowAKorI
p4942
sI4952
VgowAKoroM
p4943
sI4953
VgrAhaka
p4944
sI4954
VgrIRmakAlIna
p4945
sI4955
VgrIRmaqwu
p4946
sI4956
VgrInahAusa
p4947
sI4957
Vgraswa
p4948
sI4958
Vgro
p4949
sI4959
VgroWa
p4950
sI4960
Vgroto
p4951
sI4961
VguNa
p4952
sI4962
VguNavawwA
p4953
sI4963
VguPZAoM
p4954
sI4964
Vguda
p4955
sI4965
VgujArA
p4956
sI4966
VgujAra
p4957
sI4967
VgujAranA
p4958
sI4968
VgujArane
p4959
sI4969
VgujAre
p4960
sI4970
VgujarawI
p4961
sI4971
Vgujare
p4962
sI4972
VgulAma
p4963
sI4973
Vgulabarga
p4964
sI4974
Vgulamohara
p4965
sI4975
VgumanAmI
p4966
sI4976
Vgundala
p4967
sI4977
VgupwA
p4968
sI4978
Vgupwa
p4969
sI4979
VgupwoM
p4970
sI4980
VgurU
p4971
sI4981
VgurjaroM
p4972
sI4982
VgurunAnaka
p4973
sI4983
VgussA
p4974
sI4984
VgvAliyara
p4975
sI4985
VgyAraha
p4976
sI4986
VgyArahavI
p4977
sI4987
VhAIskUla
p4978
sI4988
VhAPa
p4979
sI4989
VhAikiMga
p4980
sI4990
VhAilEMda
p4981
sI4991
VhAlabidZa
p4982
sI4992
VhAnikAraka
p4983
sI4993
VhArbara
p4984
sI4994
VhArda
p4985
sI4995
VhAreM
p4986
sI4996
VhAusabotsa
p4987
sI4997
VhAuseja
p4988
sI4998
VhAvA
p4989
sI4999
VhAvaBAva
p4990
sI5000
VhAvarA
p4991
sI5001
VhEMdIkrAPtsa
p4992
sI5002
VhEMdabEga
p4993
sI5003
VhEMgiMga
p4994
sI5004
VhElipEda
p4995
sI5005
VhEmabarga
p4996
sI5006
VhEnda
p4997
sI5007
VhEndalUma
p4998
sI5008
VhErawaaMgeja
p4999
sI5009
VhEriteja
p5000
sI5010
VhIrA
p5001
sI5011
VhIraka
p5002
sI5012
VhItara
p5003
sI5013
VhOYbI
p5004
sI5014
VhOYbIja
p5005
sI5015
VhOYkI
p5006
sI5016
VhOYloina
p5007
sI5017
VhOYngakOYnga
p5008
sI5018
VhOYrsa
p5009
sI5019
VhaMsI
p5010
sI5020
VhaMsawe
p5011
sI5021
VhaPwA
p5012
sI5022
VhaWakaraGA
p5013
sI5023
VhaWinI
p5014
sI5024
Vhaba
p5015
sI5025
VhaddiyoM
p5016
sI5026
Vhae
p5017
sI5027
VhajArA
p5018
sI5028
Vhaka
p5019
sI5029
VhalkA
p5020
sI5030
VhamasaPara
p5021
sI5031
Vhambreta
p5022
sI5032
VhanIPZa
p5023
sI5033
VhanImUnarsa
p5024
sI5034
VhanxumAna
p5025
sI5035
VharA
p5026
sI5036
VharakaweM
p5027
sI5037
VharakawoM
p5028
sI5038
Vharaxama
p5029
sI5039
VhariNa
p5030
sI5040
VhariwASma
p5031
sI5041
VharixvAra
p5032
sI5042
VhasabeMda
p5033
sI5043
Vhatake
p5034
sI5044
Vhatane
p5035
sI5045
Vhatsa
p5036
sI5046
VhavAoM
p5037
sI5047
VhavelI
p5038
sI5048
VhaveliyoM
p5039
sI5049
VhawWe
p5040
sI5050
VhawyA
p5041
sI5051
VhelIskIiMga
p5042
sI5052
Vhelameta
p5043
sI5053
Vhelana
p5044
sI5054
VhelikOYptara
p5045
sI5055
Vhello
p5046
sI5056
Vhelo
p5047
sI5057
VhelpalAina
p5048
sI5058
VhelsiMkI
p5049
sI5059
Vheritija
p5050
sI5060
VhiMxu
p5051
sI5061
VhiPAjawa
p5052
sI5062
Vhicaka
p5053
sI5063
Vhiltana
p5054
sI5064
VhimAcCAxiwa
p5055
sI5065
Vhima
p5056
sI5066
VhimanaxiyoM
p5057
sI5067
VhimareKA
p5058
sI5068
VhinAyana
p5059
sI5069
VhippI
p5060
sI5070
VhirAwa
p5061
sI5071
Vhistorika
p5062
sI5072
VhistrI
p5063
sI5073
VhiwoM
p5064
sI5074
VhoSiyAra
p5065
sI5075
Vhodela
p5066
sI5076
Vhoja
p5067
sI5077
VhonI
p5068
sI5078
VhordiMgoM
p5069
sI5079
Vhospata
p5070
sI5080
Vhospeta
p5071
sI5081
Vhotela
p5072
sI5082
VhoyasAleSvara
p5073
sI5083
Vhoyasala
p5074
sI5084
Vhqxaya
p5075
sI5085
VhrAsameMta
p5076
sI5086
Vhraxaya
p5077
sI5087
VhuIM
p5078
sI5088
Vhunara
p5079
sI5089
Vhuye
p5080
sI5090
VhvIlsa
p5081
sI5091
Vhxaya
p5082
sI5092
ViMdastriyala
p5083
sI5093
ViMdo
p5084
sI5094
ViMgaleMda
p5085
sI5095
ViMsAnI
p5086
sI5096
ViMspIreSana
p5087
sI5097
ViMstityUSaMsa
p5088
sI5098
ViMstityUta
p5089
sI5099
ViMtIriyara
p5090
sI5100
ViMtaralAkana
p5091
sI5101
ViMtaraneta
p5092
sI5102
ViMtaresta
p5093
sI5103
ViMwajAmoM
p5094
sI5104
ViMxOra
p5095
sI5105
ViMxirA
p5096
sI5106
ViPEktsa
p5097
sI5107
ViPektsa
p5098
sI5108
ViSAka
p5099
sI5109
ViTalAwI
p5100
sI5110
ViWopiyana
p5101
sI5111
ViXara
p5102
sI5112
VicCASakwi
p5103
sI5113
VidalI
p5104
sI5114
VigjekyUtiva
p5105
sI5115
VigniSana
p5106
sI5116
Vignora
p5107
sI5117
VijAPe
p5108
sI5118
VijAjawa
p5109
sI5119
VikOYnamI
p5110
sI5120
VikanOYmika
p5111
sI5121
VikatTA
p5112
sI5122
Vikosisatama
p5113
sI5123
Vikvetara
p5114
sI5124
VilAja
p5115
sI5125
VilektrOYnika
p5116
sI5126
VimArawoM
p5117
sI5127
VimigreSana
p5118
sI5128
VinPosisa
p5119
sI5129
VinaPlEtebila
p5120
sI5130
VinakA
p5121
sI5131
Vinakredibala
p5122
sI5132
VinaseMtiva
p5123
sI5133
VinasomaniyA
p5124
sI5134
Vinavestarsa
p5125
sI5135
Vindiatimes
p5126
sI5136
Vinhone
p5127
sI5137
VinjOYya
p5128
sI5138
VinjOYyamaMta
p5129
sI5139
Vinxra
p5130
sI5140
VisIlie
p5131
sI5141
VisanA
p5132
sI5142
ViswAnA
p5133
sI5143
VitAliyana
p5134
sI5144
Viwra
p5135
sI5145
VjAMbAjI
p5136
sI5146
VjAMbAja
p5137
sI5147
VjAeMgI
p5138
sI5148
VjAhi
p5139
sI5149
VjAlI
p5140
sI5150
VjAlIxAra
p5141
sI5151
VjAma
p5142
sI5152
VjAmaCena
p5143
sI5153
VjAnakAriyAM
p5144
sI5154
VjAneM
p5145
sI5155
VjArja
p5146
sI5156
VjAwaka
p5147
sI5157
VjAxuI
p5148
sI5158
VjEkita
p5149
sI5159
VjEma
p5150
sI5160
VjInA
p5151
sI5161
VjIne
p5152
sI5162
VjIsasa
p5153
sI5163
VjIvanakAla
p5154
sI5164
VjIvanwa
p5155
sI5165
VjIviwa
p5156
sI5166
VjIvoM
p5157
sI5167
VjIwA
p5158
sI5168
VjIwane
p5159
sI5169
VjOYina
p5160
sI5170
VjOYlI
p5161
sI5171
VjOYrja
p5162
sI5172
VjOlajIbI
p5163
sI5173
VjUJa
p5164
sI5174
VjUJanA
p5165
sI5175
VjUJane
p5166
sI5176
VjUniyara
p5167
sI5177
VjZahara
p5168
sI5178
VjZarUrI
p5169
sI5179
VjZarUra
p5170
sI5180
VjaKmoM
p5171
sI5181
VjaMkSana
p5172
sI5182
VjaMsakAra
p5173
sI5183
VjaMwuoM
p5174
sI5184
Vjabaraxaswa
p5175
sI5185
Vjabase
p5176
sI5186
VjadZAI
p5177
sI5187
VjadZI
p5178
sI5188
VjadZiwa
p5179
sI5189
VjagAne
p5180
sI5190
VjaguAra
p5181
sI5191
VjahArA
p5182
sI5192
Vjahamawa
p5183
sI5193
VjaharIle
p5184
sI5194
Vjahara
p5185
sI5195
VjakadZa
p5186
sI5196
VjalAne
p5187
sI5197
VjalUla
p5188
sI5198
VjalajIvaSAlA
p5189
sI5199
VjalamArgoM
p5190
sI5200
VjalamurgiyoM
p5191
sI5201
VjalaprapAwoM
p5192
sI5202
VjalarASi
p5193
sI5203
VjalawI
p5194
sI5204
VjamAnA
p5195
sI5205
VjamAne
p5196
sI5206
VjamAva
p5197
sI5207
VjamAvadZA
p5198
sI5208
Vjamane
p5199
sI5209
Vjamparsa
p5200
sI5210
VjanAnA
p5201
sI5211
Vjana
p5202
sI5212
VjanagaNanA
p5203
sI5213
VjanajAwiyAM
p5204
sI5214
VjanajAwiyAz
p5205
sI5215
VjanajAwiyoM
p5206
sI5216
VjanajIvana
p5207
sI5217
Vjanaka
p5208
sI5218
Vjanapaxa
p5209
sI5219
VjanasElAba
p5210
sI5220
VjanasaMKyA
p5211
sI5221
VjanmaBUmi
p5212
sI5222
VjanmaxAwA
p5213
sI5223
VjanwuoM
p5214
sI5224
VjarUrawamaMxa
p5215
sI5225
VjariyA
p5216
sI5226
VjavAhara
p5217
sI5227
VjayanwI
p5218
sI5228
VjayasiMha
p5219
sI5229
Vjebakaware
p5220
sI5230
VjettI
p5221
sI5231
VjiMxA
p5222
sI5232
VjiMxAxilI
p5223
sI5233
Vjikra
p5224
sI5234
VjiloM
p5225
sI5235
VjimaKAnA
p5226
sI5236
Vjisako
p5227
sI5237
VjiwanA
p5228
sI5238
Vjixa
p5229
sI5239
VjoKima
p5230
sI5240
VjoSI
p5231
sI5241
VjoSIle
p5232
sI5242
VjoXAbAI
p5233
sI5243
VjodZakara
p5234
sI5244
VjodZawA
p5235
sI5245
VjodZawI
p5236
sI5246
VjodZie
p5237
sI5247
Vjoga
p5238
sI5248
Vjoha
p5239
sI5249
Vjonala
p5240
sI5250
VjoraxAra
p5241
sI5251
VjuJAra
p5242
sI5252
Vjugsapiwsa
p5243
sI5253
VjulA
p5244
sI5254
VjulawA
p5245
sI5255
VjurAbeM
p5246
sI5256
VjutA
p5247
sI5257
Vjutawe
p5248
sI5258
VjvAlAmuKI
p5249
sI5259
Vjyowa
p5250
sI5260
Vjyowi
p5251
sI5261
VkAMca
p5252
sI5262
VkAPUra
p5253
sI5263
VkATamAMdU
p5254
sI5264
VkAijaraWarmana
p5255
sI5265
VkAjU
p5256
sI5266
VkAjaraWarmana
p5257
sI5267
VkAkinAdZA
p5258
sI5268
VkAlA
p5259
sI5269
VkAlAhewI
p5260
sI5270
VkAlAtOYpa
p5261
sI5271
VkAlI
p5262
sI5272
VkAlIna
p5263
sI5273
VkAlaKaMda
p5264
sI5274
VkAlakA
p5265
sI5275
VkAlinxI
p5266
sI5276
VkAlixAsa
p5267
sI5277
VkAlpA
p5268
sI5278
VkAlpanika
p5269
sI5279
VkAmAxagirI
p5270
sI5280
VkAmAxagiri
p5271
sI5281
VkAmakAjoM
p5272
sI5282
VkAmawaciyAmmalE
p5273
sI5283
VkAmayAba
p5274
sI5284
VkAmewa
p5275
sI5285
VkAmoM
p5276
sI5286
VkAnhA
p5277
sI5287
VkArAgAra
p5278
sI5288
VkArIgara
p5279
sI5289
VkArIra
p5280
sI5290
VkAraKAnA
p5281
sI5291
VkAraMjI
p5282
sI5292
VkAravAz
p5283
sI5293
VkArbana
p5284
sI5294
VkArwikApallI
p5285
sI5295
VkArwika
p5286
sI5296
VkAryakrama
p5287
sI5297
VkAryakramoM
p5288
sI5298
VkAryoM
p5289
sI5299
VkAtakara
p5290
sI5300
VkAtane
p5291
sI5301
VkAte
p5292
sI5302
VkAuMsila
p5293
sI5303
VkAuMtara
p5294
sI5304
VkAverI
p5295
sI5305
VkAyAkeiMga
p5296
sI5306
VkAyAmakulama
p5297
sI5307
VkAyama
p5298
sI5308
VkEMbrija
p5299
sI5309
VkEMsala
p5300
sI5310
VkEMsila
p5301
sI5311
VkEPIna
p5302
sI5312
VkESa
p5303
sI5313
VkEWe
p5304
sI5314
VkEbenasa
p5305
sI5315
VkEjuala
p5306
sI5316
VkElASa
p5307
sI5317
VkEmala
p5308
sI5318
VkEmaroM
p5309
sI5319
VkEmpaPAyara
p5310
sI5320
VkEmpe
p5311
sI5321
VkEmpiMga
p5312
sI5322
VkEntOYnameMta
p5313
sI5323
VkEpa
p5314
sI5324
VkEpiMga
p5315
sI5325
VkEpitala
p5316
sI5326
VkEprIja
p5317
sI5327
VkEpsUla
p5318
sI5328
VkEsI
p5319
sI5329
VkEsarOlI
p5320
sI5330
VkEskedsa
p5321
sI5331
VkEta
p5322
sI5332
VkIdZe
p5323
sI5333
VkIdZoM
p5324
sI5334
VkImaweM
p5325
sI5335
VkIrwi
p5326
sI5336
VkIta
p5327
sI5337
VkOYkatela
p5328
sI5338
VkOYlejoM
p5329
sI5339
VkOYlija
p5330
sI5340
VkOYlonI
p5331
sI5341
VkOYmbineSana
p5332
sI5342
VkOYmpaleksa
p5333
sI5343
VkOYmpitiSaMsa
p5334
sI5344
VkOYnsepta
p5335
sI5345
VkOYntEkta
p5336
sI5346
VkOYntesta
p5337
sI5347
VkOYpI
p5338
sI5348
VkOYpiyAM
p5339
sI5349
VkOYpmlEksa
p5340
sI5350
VkOYrdinetara
p5341
sI5351
VkOYstyUma
p5342
sI5352
VkOwuka
p5343
sI5353
VkRaNAMSa
p5344
sI5354
VkRewrIya
p5345
sI5355
VkUbadZa
p5346
sI5356
VkUjiMga
p5347
sI5357
VkUlara
p5348
sI5358
VkUricU
p5349
sI5359
VkUxa
p5350
sI5360
VkaMPyUja
p5351
sI5361
VkaMcana
p5352
sI5362
VkaMcanajaMgA
p5353
sI5363
VkaMdISaMsa
p5354
sI5364
VkaMdiSana
p5355
sI5365
VkaMgadZA
p5356
sI5366
VkaMkrIta
p5357
sI5367
VkaMpeniyama
p5358
sI5368
VkaMsa
p5359
sI5369
VkaMsepta
p5360
sI5370
VkaMtrI
p5361
sI5371
VkaTapuwaliyAM
p5362
sI5372
VkaTora
p5363
sI5373
VkaWAez
p5364
sI5374
VkaWAoM
p5365
sI5375
VkabUwara
p5366
sI5376
VkabjA
p5367
sI5377
VkabjZA
p5368
sI5378
VkadZe
p5369
sI5379
VkagAra
p5370
sI5380
VkahalAne
p5371
sI5381
VkahavA
p5372
sI5382
VkahawA
p5373
sI5383
VkaheM
p5374
sI5384
VkahegA
p5375
sI5385
VkakRa
p5376
sI5386
VkalAbalaMxa
p5377
sI5387
VkalAez
p5378
sI5388
VkalAkAra
p5379
sI5389
VkalAkqwiyOYz
p5380
sI5390
VkalAoM
p5381
sI5391
VkalAwmakawA
p5382
sI5392
VkalaMkArI
p5383
sI5393
Vkalakala
p5384
sI5394
VkalakawwA
p5385
sI5395
Vkalara
p5386
sI5396
VkalaraPula
p5387
sI5397
Vkalpa
p5388
sI5398
VkalpanASIla
p5389
sI5399
VkalpanASakwi
p5390
sI5400
Vkalpiwa
p5391
sI5401
VkalyANa
p5392
sI5402
VkamA
p5393
sI5403
VkamANdeMta
p5394
sI5404
VkamAla
p5395
sI5405
VkamAne
p5396
sI5406
Vkamala
p5397
sI5407
VkamiSana
p5398
sI5408
VkamiSnara
p5399
sI5409
VkammA
p5400
sI5410
VkampaniyAz
p5401
sI5411
VkampaniyoM
p5402
sI5412
VkamyUniketa
p5403
sI5413
VkamyunitI
p5404
sI5414
VkanAdA
p5405
sI5415
VkanPyUjana
p5406
sI5416
Vkanekta
p5407
sI5417
VkannOja
p5408
sI5418
Vkanvartibala
p5409
sI5419
VkanveMSena
p5410
sI5420
Vkapala
p5411
sI5421
Vkapilavaswu
p5412
sI5422
VkarAe
p5413
sI5423
VkarAegI
p5414
sI5424
VkarAkara
p5415
sI5425
VkarAra
p5416
sI5426
VkarIbI
p5417
sI5427
VkarIbana
p5418
sI5428
VkarImanagara
p5419
sI5429
VkarNAlA
p5420
sI5430
VkarNa
p5421
sI5431
Vkarajoka
p5422
sI5432
VkaravAwA
p5423
sI5433
VkarawIM
p5424
sI5434
VkareMgI
p5425
sI5435
Vkarma
p5426
sI5436
VkarnAtakA
p5427
sI5437
VkarnI
p5428
sI5438
VkaselA
p5429
sI5439
VkatibaMXIya
p5430
sI5440
Vkavaca
p5431
sI5441
Vkavlaya
p5432
sI5442
VkavvAliyAz
p5433
sI5443
VkawarAeMge
p5434
sI5444
Vkawipaya
p5435
sI5445
Vkawla
p5436
sI5446
VkaxamI
p5437
sI5447
Vkaxara
p5438
sI5448
VkeMxroM
p5439
sI5449
VkeWedrala
p5440
sI5450
VkekadZoM
p5441
sI5451
Vkelakara
p5442
sI5452
Vkenxriwa
p5443
sI5453
Vkesa
p5444
sI5454
VkesarI
p5445
sI5455
VkettUkAja
p5446
sI5456
Vkeva
p5447
sI5457
VkevalAxeva
p5448
sI5458
Vkevsa
p5449
sI5459
VkexAha
p5450
sI5460
VkexAranAWa
p5451
sI5461
Vkexra
p5452
sI5462
VkiMgsa
p5453
sI5463
VkiMwu
p5454
sI5464
VkiSanapura
p5455
sI5465
VkiSwoM
p5456
sI5466
Vkicana
p5457
sI5467
VkilakanI
p5458
sI5468
VkilebaMxa
p5459
sI5469
VkilemItara
p5460
sI5470
VkilenumA
p5461
sI5471
VkilkI
p5462
sI5472
VkinAroM
p5463
sI5473
Vkina
p5464
sI5474
VkirAne
p5465
sI5475
VkirAye
p5466
sI5476
VkirAyoM
p5467
sI5477
Vkisma
p5468
sI5478
Vkismawa
p5469
sI5479
VkissA
p5470
sI5480
VkiwanoM
p5471
sI5481
VklAiMtsa
p5472
sI5482
VklAka
p5473
sI5483
VklOYWa
p5474
sI5484
VklOYka
p5475
sI5485
VklOYta
p5476
sI5486
VklaboM
p5477
sI5487
VkliPa
p5478
sI5488
Vkloja
p5479
sI5489
Vklojda
p5480
sI5490
VkoNa
p5481
sI5491
VkoSa
p5482
sI5492
VkocIna
p5483
sI5493
Vkoca
p5484
sI5494
Vkocci
p5485
sI5495
Vkoda
p5486
sI5496
Vkoha
p5487
sI5497
VkoharA
p5488
sI5498
Vkohare
p5489
sI5499
VkolAhala
p5490
sI5500
VkolAhalapUrNa
p5491
sI5501
Vkolikata
p5492
sI5502
Vkolona
p5493
sI5503
Vkoloniyala
p5494
sI5504
Vkomala
p5495
sI5505
VkomalawA
p5496
sI5506
VkonArka
p5497
sI5507
Vkoribana
p5498
sI5508
VkoriyA
p5499
sI5509
VkorsoM
p5500
sI5510
Vkosta
p5501
sI5511
VkotA
p5502
sI5512
Vkotabana
p5503
sI5513
Vkoti
p5504
sI5514
VkottAyama
p5505
sI5515
Vkova
p5506
sI5516
Vkovalama
p5507
sI5517
VkoxAroSvara
p5508
sI5518
VkqRNArAjA
p5509
sI5519
VkqRNarAjasAgara
p5510
sI5520
VkqRi
p5511
sI5521
VkqpA
p5512
sI5522
VkqpayA
p5513
sI5523
VkqwiyAM
p5514
sI5524
Vkqwrima
p5515
sI5525
VkrAMwikArI
p5516
sI5526
VkrEga
p5517
sI5527
VkrIdZAoez
p5518
sI5528
VkrIdZAwmaka
p5519
sI5529
VkrOYsa
p5520
sI5530
Vkramika
p5521
sI5531
Vkrietiva
p5522
sI5532
VkrietivitI
p5523
sI5533
Vkriketa
p5524
sI5534
Vkrinolina
p5525
sI5535
VkuKyAwa
p5526
sI5536
VkuMdoM
p5527
sI5537
VkuMja
p5528
sI5538
VkuSInArA
p5529
sI5539
VkuSalawA
p5530
sI5540
VkuSalawAoM
p5531
sI5541
Vkubona
p5532
sI5542
VkukarahalI
p5533
sI5543
VkumArI
p5534
sI5544
VkumAra
p5535
sI5545
VkumArakama
p5536
sI5546
VkumAriyoM
p5537
sI5547
Vkuwwe
p5538
sI5548
VkvAlAMlapura
p5539
sI5549
VkvArtja
p5540
sI5550
VkvijZIna
p5541
sI5551
VkyArI
p5542
sI5552
VkyUta
p5543
sI5553
Vkyoki
p5544
sI5554
Vkyume
p5545
sI5555
VlAI
p5546
sI5556
VlAPsa
p5547
sI5557
VlAPtara
p5548
sI5558
VlAe
p5549
sI5559
VlAhowI
p5550
sI5560
VlAiPastAila
p5551
sI5561
VlAibrerI
p5552
sI5562
VlAimA
p5553
sI5563
VlAina
p5554
sI5564
VlAiseMsI
p5555
sI5565
VlAitahAusa
p5556
sI5566
VlAiva
p5557
sI5567
VlAjamI
p5558
sI5568
VlAjavAba
p5559
sI5569
VlAjimI
p5560
sI5570
VlAkara
p5561
sI5571
VlAlA
p5562
sI5572
VlAlarewIlA
p5563
sI5573
VlAmA
p5564
sI5574
VlAne
p5565
sI5575
VlAparavAhI
p5566
sI5576
VlArajI
p5567
sI5577
VlAsa
p5568
sI5578
VlAuMja
p5569
sI5579
VlAwI
p5570
sI5580
VlAwviyA
p5571
sI5581
VlEGorna
p5572
sI5582
VlEsa
p5573
sI5583
VlIja
p5574
sI5584
VlItara
p5575
sI5585
VlOYbI
p5576
sI5586
VlOYbstara
p5577
sI5587
VlOYga
p5578
sI5588
VlOYjiMga
p5579
sI5589
VlOYka
p5580
sI5590
VlOYna
p5581
sI5591
VlOYrda
p5582
sI5592
VlOYsta
p5583
sI5593
VlOta
p5584
sI5594
VlOtawe
p5585
sI5595
VlaMca
p5586
sI5596
VlaMgAlI
p5587
sI5597
VlaMgUra
p5588
sI5598
VlaMgara
p5589
sI5599
VlaMkA
p5590
sI5600
VladZake
p5591
sI5601
VladZe
p5592
sI5602
VladduoM
p5593
sI5603
VlagAI
p5594
sI5604
VlagAeM
p5595
sI5605
VlagAeMge
p5596
sI5606
VlagAkara
p5597
sI5607
VlagAma
p5598
sI5608
VlagAnA
p5599
sI5609
VlagAwI
p5600
sI5610
VlagAye
p5601
sI5611
VlagavAe
p5602
sI5612
VlageM
p5603
sI5613
VlagegI
p5604
sI5614
Vlagjuriyasa
p5605
sI5615
Vlahaje
p5606
sI5616
VlahalahAwe
p5607
sI5617
VlaharAwe
p5608
sI5618
VlahareM
p5609
sI5619
VlakadZabagGe
p5610
sI5620
VlakjarI
p5611
sI5621
VlalacAne
p5612
sI5622
Vlaliwapura
p5613
sI5623
VlamheM
p5614
sI5624
VlataWiyA
p5615
sI5625
VlatakA
p5616
sI5626
VlawvijA
p5617
sI5627
VlawviyA
p5618
sI5628
VlaxxAKI
p5619
sI5629
VleKaka
p5620
sI5630
VleMgI
p5621
sI5631
VleMgpaI
p5622
sI5632
VlePtineMta
p5623
sI5633
VlegA
p5624
sI5634
Vlena
p5625
sI5635
Vletakara
p5626
sI5636
Vletara
p5627
sI5637
VliKa
p5628
sI5638
VliKakara
p5629
sI5639
VliMgabuxI
p5630
sI5640
VliMgametta
p5631
sI5641
VliMgawi
p5632
sI5642
VliMka
p5633
sI5643
VliPta
p5634
sI5644
VlijI
p5635
sI5645
VlimiWaMga
p5636
sI5646
Vlinana
p5637
sI5647
Vlinena
p5638
sI5648
Vlipata
p5639
sI5649
VloParsa
p5640
sI5650
Vloda
p5641
sI5651
VlokagIwa
p5642
sI5652
Vlokanqwya
p5643
sI5653
VlokapriyawA
p5644
sI5654
VlokeSana
p5645
sI5655
VlomadZiyAM
p5646
sI5656
Vlotasa
p5647
sI5657
VluBA
p5648
sI5658
VluBAvanI
p5649
sI5659
VluBAwI
p5650
sI5660
Vluisa
p5651
sI5661
VlumbinI
p5652
sI5662
VmAMgI
p5653
sI5663
VmAMsAhArI
p5654
sI5664
VmAMsapeSiyoM
p5655
sI5665
VmAUMtaAbU
p5656
sI5666
VmAXavana
p5657
sI5667
VmAXopura
p5658
sI5668
VmAXyamoM
p5659
sI5669
VmAigreta
p5660
sI5670
VmAinara
p5661
sI5671
VmAlAoM
p5662
sI5672
VmAlUma
p5663
sI5673
VmAna
p5664
sI5674
VmAnasUnI
p5665
sI5675
VmAnasUna
p5666
sI5676
VmAnasUnoM
p5667
sI5677
VmAnasiMha
p5668
sI5678
VmAnavawA
p5669
sI5679
VmAneM
p5670
sI5680
VmAnyawA
p5671
sI5681
VmArgo
p5672
sI5682
VmAsa
p5673
sI5683
VmAstara
p5674
sI5684
VmAunta
p5675
sI5685
VmAwa
p5676
sI5686
VmAwrA
p5677
sI5687
VmAwra
p5678
sI5688
VmAyAxevI
p5679
sI5689
VmEca
p5680
sI5690
VmEcoM
p5681
sI5691
VmEdama
p5682
sI5692
VmEgI
p5683
sI5693
VmEgnIPAiMga
p5684
sI5694
VmEjika
p5685
sI5695
VmEkalodagaMja
p5686
sI5696
VmEnejiMga
p5687
sI5697
VmEnyualsa
p5688
sI5698
VmEseja
p5689
sI5699
VmEtIriyala
p5690
sI5700
VmIla
p5691
sI5701
VmInAroM
p5692
sI5702
VmIna
p5693
sI5703
VmItiMga
p5694
sI5704
VmOYdarna
p5695
sI5705
VmOYiScarAijara
p5696
sI5706
VmOYnestrIja
p5697
sI5707
VmOYrISasa
p5698
sI5708
VmOYrdana
p5699
sI5709
VmOjUxagI
p5700
sI5710
VmOkoM
p5701
sI5711
VmOlikawaH
p5702
sI5712
VmOsamI
p5703
sI5713
VmUMgA
p5704
sI5714
VmUka
p5705
sI5715
VmUlawaH
p5706
sI5716
VmUrwI
p5707
sI5717
VmUrwikalA
p5708
sI5718
VmUrwiyAM
p5709
sI5719
VmUrwwi
p5710
sI5720
VmUsI
p5711
sI5721
VmUwiryAM
p5712
sI5722
VmUzga
p5713
sI5723
VmUzge
p5714
sI5724
VmaGya
p5715
sI5725
VmaMWalI
p5716
sI5726
VmaMca
p5717
sI5727
VmaMgalAxevI
p5718
sI5728
VmaMgalOra
p5719
sI5729
VmaMgala
p5720
sI5730
VmaMgalavAra
p5721
sI5731
VmaMgavAe
p5722
sI5732
VmaMgavAkara
p5723
sI5733
VmaMgavAwe
p5724
sI5734
VmaMjUra
p5725
sI5735
VmaMjarI
p5726
sI5736
VmaMjilA
p5727
sI5737
VmaMjile
p5728
sI5738
VmaMkI
p5729
sI5739
VmaNI
p5730
sI5740
VmaNikarNa
p5731
sI5741
VmaNipura
p5732
sI5742
VmaSInoM
p5733
sI5743
VmaTa
p5734
sI5744
VmaToM
p5735
sI5745
VmaXura
p5736
sI5746
VmacCaroM
p5737
sI5747
VmacalAne
p5738
sI5748
VmadZagOYva
p5739
sI5749
VmahA
p5740
sI5750
VmahASivarAwri
p5741
sI5751
VmahAboXi
p5742
sI5752
VmahAmAyA
p5743
sI5753
VmahAn
p5744
sI5754
VmahAnagaroM
p5745
sI5755
VmahAparinirvANa
p5746
sI5756
VmahAsAgara
p5747
sI5757
VmahAswUpa
p5748
sI5758
VmahAvana
p5749
sI5759
VmahAxvIpIya
p5750
sI5760
VmahaPila
p5751
sI5761
Vmahaka
p5752
sI5762
VmahallA
p5753
sI5763
VmahawvakAMkRAoM
p5754
sI5764
VmahiRAsura
p5755
sI5765
VmahilAoM
p5756
sI5766
VmahimA
p5757
sI5767
VmahimAmayI
p5758
sI5768
VmajAkiyA
p5759
sI5769
VmajAla
p5760
sI5770
VmajaxUroM
p5761
sI5771
Vmaje
p5762
sI5772
Vmajila
p5763
sI5773
VmakKana
p5764
sI5774
VmakOdZe
p5765
sI5775
VmakarAnA
p5766
sI5776
Vmakara
p5767
sI5777
Vmala
p5768
sI5778
Vmalabe
p5769
sI5779
Vmalaya
p5770
sI5780
VmaleSiyA
p5771
sI5781
VmaleSiyana
p5772
sI5782
VmallIwAla
p5773
sI5783
VmaltIlena
p5774
sI5784
VmanAI
p5775
sI5785
VmanAeM
p5776
sI5786
VmanAwe
p5777
sI5787
VmanAyI
p5778
sI5788
VmanI
p5779
sI5789
VmanamAPika
p5780
sI5790
Vmanamohana
p5781
sI5791
VmanohArI
p5782
sI5792
VmanoraMjaka
p5783
sI5793
Vmanu
p5784
sI5794
VmanuRya
p5785
sI5795
VmanuRyoM
p5786
sI5796
Vmanxa
p5787
sI5797
VmapUsA
p5788
sI5798
VmarAToM
p5789
sI5799
VmarUxyAna
p5790
sI5800
VmaraWaMdZA
p5791
sI5801
Vmariyala
p5792
sI5802
VmarjI
p5793
sI5803
VmasAloM
p5794
sI5804
Vmasalsa
p5795
sI5805
VmasjixeM
p5796
sI5806
VmasjixoM
p5797
sI5807
VmatamEle
p5798
sI5808
Vmatana
p5799
sI5809
Vmatara
p5800
sI5810
VmaxXima
p5801
sI5811
VmaxaxagAra
p5802
sI5812
VmaxinAwula
p5803
sI5813
VmaxirAlayoM
p5804
sI5814
VmeDZI
p5805
sI5815
VmeMbarsa
p5806
sI5816
VmeMcestara
p5807
sI5817
Vmedisina
p5808
sI5818
VmehanawAnA
p5809
sI5819
VmeharAbaxAra
p5810
sI5820
VmeharAboM
p5811
sI5821
VmeharabAna
p5812
sI5822
VmekamAItripa
p5813
sI5823
Vmeksikana
p5814
sI5824
Vmelabarna
p5815
sI5825
Vmelkota
p5816
sI5826
Vmenana
p5817
sI5827
VmerAha
p5818
sI5828
Vmetroja
p5819
sI5829
VmevAdZa
p5820
sI5830
Vmeyo
p5821
sI5831
VmiMjara
p5822
sI5832
Vmidala
p5823
sI5833
Vmijo
p5824
sI5834
Vmiksa
p5825
sI5835
VmilAne
p5826
sI5836
VmilApa
p5827
sI5837
VmilIM
p5828
sI5838
VmilanI
p5829
sI5839
VmilitrI
p5830
sI5840
Vmiliyana
p5831
sI5841
Vmilka
p5832
sI5842
Vminarala
p5833
sI5843
VminikOYya
p5834
sI5844
Vmisra
p5835
sI5845
VmitAne
p5836
sI5846
VmittI
p5837
sI5847
VmiyAxa
p5838
sI5848
VmoInuuxxIna
p5839
sI5849
VmoSana
p5840
sI5850
VmoXarA
p5841
sI5851
Vmohabbawa
p5842
sI5852
Vmohabwa
p5843
sI5853
Vmohammaxa
p5844
sI5854
VmohawAja
p5845
sI5855
VmoinuxxIna
p5846
sI5856
Vmojele
p5847
sI5857
VmolaBAva
p5848
sI5858
Vmonala
p5849
sI5859
VmonpA
p5850
sI5860
Vmora
p5851
sI5861
VmotI
p5852
sI5862
VmotaloM
p5853
sI5863
VmotarasAikala
p5854
sI5864
VmotarasAikila
p5855
sI5865
Vmotarsa
p5856
sI5866
Vmqwyu
p5857
sI5867
Vmqxula
p5858
sI5868
Vmqxulawara
p5859
sI5869
VmuJa
p5860
sI5870
VmuKI
p5861
sI5871
VmuKyaBUmi
p5862
sI5872
VmuKyawa
p5863
sI5873
VmuKyawaH
p5864
sI5874
VmuKyaxvAra
p5865
sI5875
VmuMbrA
p5866
sI5876
VmuPIxa
p5867
sI5877
VmuPwa
p5868
sI5878
VmugXa
p5869
sI5879
VmuhEyyA
p5870
sI5880
Vmukuta
p5871
sI5881
VmulkoM
p5872
sI5882
VmunAPe
p5873
sI5883
Vmuni
p5874
sI5884
VmunnA
p5875
sI5885
VmurAxAbAxa
p5876
sI5886
VmuralI
p5877
sI5887
VmusIbawoM
p5878
sI5888
VmusalamAna
p5879
sI5889
VmuswExa
p5880
sI5890
VmuxrAeM
p5881
sI5891
VmyUjiSana
p5882
sI5892
VmyUniKa
p5883
sI5893
VnAI
p5884
sI5894
VnASwe
p5885
sI5895
VnAWa
p5886
sI5896
VnAgArjuna
p5887
sI5897
VnAgarAja
p5888
sI5898
VnAgara
p5889
sI5899
VnAgarahOYla
p5890
sI5900
VnAgarakola
p5891
sI5901
VnAgarika
p5892
sI5902
VnAgaxevawA
p5893
sI5903
VnAita
p5894
sI5904
VnAitalAiPa
p5895
sI5905
VnAjuka
p5896
sI5906
VnAkASa
p5897
sI5907
VnAka
p5898
sI5908
VnAkebaMxI
p5899
sI5909
VnAla
p5900
sI5910
VnAmakaraNa
p5901
sI5911
VnAmoniSAna
p5902
sI5912
VnAnA
p5903
sI5913
VnAnakasAgara
p5904
sI5914
VnArAyaNa
p5905
sI5915
VnArIwva
p5906
sI5916
VnArWa
p5907
sI5917
VnAtakakAra
p5908
sI5918
VnAu
p5909
sI5919
VnAvikoM
p5910
sI5920
VnAvoM
p5911
sI5921
VnAwA
p5912
sI5922
VnAyaba
p5913
sI5923
VnEpI
p5914
sI5924
VnEpakina
p5915
sI5925
VnEro
p5916
sI5926
VnIMxa
p5917
sI5927
VnIcA
p5918
sI5928
VnIcI
p5919
sI5929
VnIlA
p5920
sI5930
VnIla
p5921
sI5931
VnIlakaMTeSvara
p5922
sI5932
VnIlama
p5923
sI5933
VnIleSa
p5924
sI5934
VnIwiyoM
p5925
sI5935
VnIxaralEMda
p5926
sI5936
VnOjavAna
p5927
sI5937
VnOkAoM
p5928
sI5938
VnOkAvihAra
p5929
sI5939
VnOkuciyA
p5930
sI5940
VnOsiKie
p5931
sI5941
VnUdalsa
p5932
sI5942
VnaMbiyAra
p5933
sI5943
VnaMge
p5934
sI5944
VnaMxAkota
p5935
sI5945
VnaMxI
p5936
sI5946
VnaRta
p5937
sI5947
VnaddI
p5938
sI5948
VnagaroM
p5939
sI5949
Vnaggara
p5940
sI5950
VnajZAre
p5941
sI5951
VnajZAroM
p5942
sI5952
VnajZarie
p5943
sI5953
VnajZaxIkI
p5944
sI5954
VnajaPa
p5945
sI5955
VnakalI
p5946
sI5956
VnakkASiyAz
p5947
sI5957
VnamerI
p5948
sI5958
VnanjanagaDZa
p5949
sI5959
VnarasiMmhA
p5950
sI5960
Vnarma
p5951
sI5961
Vnarsa
p5952
sI5962
Vnasla
p5953
sI5963
VnavAjI
p5954
sI5964
VnavamI
p5955
sI5965
VnavarAwri
p5956
sI5966
VnaxIya
p5957
sI5967
Vnaxa
p5958
sI5968
VnayanABirAma
p5959
sI5969
Vneta
p5960
sI5970
Vnetavarka
p5961
sI5971
Vnevala
p5962
sI5972
Vnevigetara
p5963
sI5973
VniBAI
p5964
sI5974
VniBAyIM
p5965
sI5975
VniHSvAsana
p5966
sI5976
VniKara
p5967
sI5977
VniReXa
p5968
sI5978
VniReXoM
p5969
sI5979
VniRpAxana
p5970
sI5980
VniSAniyoM
p5971
sI5981
VniSciwa
p5972
sI5982
VniSvAsa
p5973
sI5983
VniXi
p5974
sI5984
VnigamoM
p5975
sI5985
VnihArA
p5976
sI5986
VnihAranA
p5977
sI5987
VnihArawe
p5978
sI5988
VnijAmAbAxa
p5979
sI5989
VnikAlA
p5980
sI5990
VnikAlI
p5981
sI5991
VnikAlie
p5982
sI5992
VnikalIM
p5983
sI5993
VnikalanA
p5984
sI5994
Vnikalane
p5985
sI5995
VnikaleMge
p5986
sI5996
Vnikalie
p5987
sI5997
VnikatawA
p5988
sI5998
Vnio
p5989
sI5999
VnipuNawA
p5990
sI6000
VnirASAjanaka
p5991
sI6001
VnirASa
p5992
sI6002
VnirXAriwa
p5993
sI6003
Vniranwara
p5994
sI6004
VnirapavAxa
p5995
sI6005
VnirbAXa
p5996
sI6006
Vnirjana
p5997
sI6007
VnirmANarawa
p5998
sI6008
Vnirmala
p5999
sI6009
VnirnANa
p6000
sI6010
VnirnAsiwa
p6001
sI6011
VnirxeSa
p6002
sI6012
VnirxeSiwa
p6003
sI6013
VnissaMxeha
p6004
sI6014
VnivAsiyoM
p6005
sI6015
Vniwina
p6006
sI6016
VnixeSAlaya
p6007
sI6017
VnixeSaka
p6008
sI6018
VniyAmawoM
p6009
sI6019
Vniyama
p6010
sI6020
VniyamiwawA
p6011
sI6021
VniyamoM
p6012
sI6022
Vniyojiwa
p6013
sI6023
VnotiPikeSana
p6014
sI6024
VnqwyoM
p6015
sI6025
VnyAyAlaya
p6016
sI6026
VnyUja
p6017
sI6027
VnyUnawama
p6018
sI6028
VnyUtrala
p6019
sI6029
VoMkAra
p6020
sI6030
VoSana
p6021
sI6031
VoberOYya
p6022
sI6032
Voesisa
p6023
sI6033
Voke
p6024
sI6034
VoperA
p6025
sI6035
VorAMga
p6026
sI6036
Vosa
p6027
sI6037
VotAna
p6028
sI6038
VpAMcoM
p6029
sI6039
VpAMdicerI
p6030
sI6040
VpAMgI
p6031
sI6041
VpANI
p6032
sI6042
VpANdIcerI
p6033
sI6043
VpATyakrama
p6034
sI6044
VpAUMgA
p6035
sI6045
VpAbaMxI
p6036
sI6046
VpAezge
p6037
sI6047
VpAgala
p6038
sI6048
VpAinepala
p6039
sI6049
VpAireta
p6040
sI6050
VpAiretsa
p6041
sI6051
VpAjeba
p6042
sI6052
VpAka
p6043
sI6053
VpAlama
p6044
sI6054
VpAnA
p6045
sI6055
VpArA
p6046
sI6056
VpArSva
p6047
sI6057
VpArasI
p6048
sI6058
VpArisWiwika
p6049
sI6059
VpArkalEMda
p6050
sI6060
VpArtI
p6051
sI6061
VpArtanarsa
p6052
sI6062
VpAwAlapurI
p6053
sI6063
VpAwIM
p6054
sI6064
VpAwe
p6055
sI6065
VpAxAnoM
p6056
sI6066
VpAxarI
p6057
sI6067
VpAyalata
p6058
sI6068
VpEda
p6059
sI6069
VpEkejesa
p6060
sI6070
VpEkejoM
p6061
sI6071
VpEnI
p6062
sI6072
VpErA
p6063
sI6073
VpErisa
p6064
sI6074
VpEroteta
p6065
sI6075
VpEse
p6066
sI6076
VpEseMjaroM
p6067
sI6077
VpEsiMjaroM
p6068
sI6078
VpEsiPika
p6069
sI6079
VpEsoM
p6070
sI6080
VpEtriksa
p6071
sI6081
VpEveliyana
p6072
sI6082
VpEwqka
p6073
sI6083
VpEwrika
p6074
sI6084
VpExA
p6075
sI6085
VpIDZiyAM
p6076
sI6086
VpIDZiyoM
p6077
sI6087
VpIksa
p6078
sI6088
VpIle
p6079
sI6089
VpInA
p6080
sI6090
VpIpalU
p6081
sI6091
VpIriyada
p6082
sI6092
VpIsa
p6083
sI6093
VpIwe
p6084
sI6094
VpIwsA
p6085
sI6095
VpOYTaMta
p6086
sI6096
VpOYketa
p6087
sI6097
VpOYla
p6088
sI6098
VpU
p6089
sI6099
VpUCa
p6090
sI6100
VpUCakara
p6091
sI6101
VpUCawACa
p6092
sI6102
VpUCawe
p6093
sI6103
VpUCie
p6094
sI6104
VpUMjIvAxa
p6095
sI6105
VpUNe
p6096
sI6106
VpU_rNa
p6097
sI6107
VpUje
p6098
sI6108
VpUrNawaH
p6099
sI6109
VpUrvAnumawi
p6100
sI6110
VpUrvajoM
p6101
sI6111
VpUrvaka
p6102
sI6112
VpUrvowwara
p6103
sI6113
VpaDZAkU
p6104
sI6114
VpaDZI
p6105
sI6115
VpaDZanA
p6106
sI6116
VpaDZawI
p6107
sI6117
VpaDZeM
p6108
sI6118
VpaMcaCUlI
p6109
sI6119
VpaMcakuMda
p6110
sI6120
VpaMcakulA
p6111
sI6121
VpaMcapulA
p6112
sI6122
VpaMjIkaraNa
p6113
sI6123
VpaMjIkqwa
p6114
sI6124
VpaMkaja
p6115
sI6125
VpaMkwi
p6116
sI6126
VpaMpa
p6117
sI6127
VpaMwa
p6118
sI6128
VpaMwanagara
p6119
sI6129
VpaScAwa
p6120
sI6130
VpaWoM
p6121
sI6131
VpaboM
p6122
sI6132
VpadAva
p6123
sI6133
VpadZIM
p6124
sI6134
VpadZeM
p6125
sI6135
VpadZegI
p6126
sI6136
VpadZosI
p6127
sI6137
VpahAdZIyoM
p6128
sI6138
VpahalU
p6129
sI6139
VpahalagAma
p6130
sI6140
VpahanI
p6131
sI6141
VpahuMcAI
p6132
sI6142
VpahuMcAe
p6133
sI6143
VpahuMcAwe
p6134
sI6144
VpahuMcI
p6135
sI6145
VpahuMcakara
p6136
sI6146
VpahuMceM
p6137
sI6147
Vpahuzca
p6138
sI6148
Vpahuzcane
p6139
sI6149
VpahuzcawI
p6140
sI6150
VpajZiSana
p6141
sI6151
VpakA
p6142
sI6152
VpakAnA
p6143
sI6153
VpakAyA
p6144
sI6154
VpakOdZe
p6145
sI6155
VpakadZanA
p6146
sI6156
VpakadZane
p6147
sI6157
VpalapAyasama
p6148
sI6158
Vpalolama
p6149
sI6159
Vpanape
p6150
sI6160
Vpanavela
p6151
sI6161
VpannA
p6152
sI6162
VpannoM
p6153
sI6163
VparAjaya
p6154
sI6164
VparAvarwana
p6155
sI6165
VparIkRaNa
p6156
sI6166
VparaCAIM
p6157
sI6167
VparaMparAgawa
p6158
sI6168
VparaPyUma
p6159
sI6169
Vparawa
p6160
sI6170
VpareSAniyAM
p6161
sI6171
Vpareda
p6162
sI6172
VpariNAma
p6163
sI6173
Vpariciwa
p6164
sI6174
VparikramA
p6165
sI6175
VparipaWa
p6166
sI6176
VparisImiwa
p6167
sI6177
Vparisara
p6168
sI6178
VparivAroM
p6169
sI6179
Vparivahana
p6170
sI6180
VparivarwIwa
p6171
sI6181
Vpariwyakwa
p6172
sI6182
VparixqSya
p6173
sI6183
VpariyojanA
p6174
sI6184
Vparla
p6175
sI6185
Vparsa
p6176
sI6186
Vparsanala
p6177
sI6187
Vparva
p6178
sI6188
VparxA
p6179
sI6189
Vparxe
p6180
sI6190
VparxoM
p6181
sI6191
VparyApwa
p6182
sI6192
Vparyanwa
p6183
sI6193
Vparyatako
p6184
sI6194
Vpata
p6185
sI6195
VpatanA
p6186
sI6196
VpatarI
p6187
sI6197
Vpatela
p6188
sI6198
VpattI
p6189
sI6199
VpattiyAz
p6190
sI6200
VpaviwrawA
p6191
sI6201
VpawaJadZI
p6192
sI6202
VpawaMga
p6193
sI6203
VpawalI
p6194
sI6204
Vpawana
p6195
sI6205
Vpawra
p6196
sI6206
VpawrakAroM
p6197
sI6207
Vpawwana
p6198
sI6208
Vpawwe
p6199
sI6209
Vpaxa
p6200
sI6210
Vpaxama
p6201
sI6211
VpaxasWa
p6202
sI6212
VpaxavI
p6203
sI6213
VpaxayAwrA
p6204
sI6214
VpaxmasaMBava
p6205
sI6215
VpayasvEnI
p6206
sI6216
VpeMSanarsa
p6207
sI6217
VpeMnAga
p6208
sI6218
VpeMtara
p6209
sI6219
VpeSakaSoM
p6210
sI6220
VpeSevara
p6211
sI6221
Vpedala
p6212
sI6222
VpemeMta
p6213
sI6223
Vpensa
p6214
sI6224
Vpeparavarka
p6215
sI6225
VperUnnala
p6216
sI6226
Vperisa
p6217
sI6227
Vpero
p6218
sI6228
Vpeta
p6219
sI6229
VpetapUjA
p6220
sI6230
Vpeyara
p6221
sI6231
VpiMpadZI
p6222
sI6232
VpiWOrAgaDZa
p6223
sI6233
VpieM
p6224
sI6234
VpilA
p6225
sI6235
VpilAne
p6226
sI6236
VpinnavalA
p6227
sI6237
VpittI
p6228
sI6238
VplAMteSana
p6229
sI6239
VplAMtiMga
p6230
sI6240
VplEna
p6231
sI6241
VplIjZa
p6232
sI6242
Vple
p6233
sI6243
VpoMCane
p6234
sI6244
VpoMgA
p6235
sI6245
VpoRaNa
p6236
sI6246
VpoSAkoM
p6237
sI6247
VpolunavArA
p6238
sI6248
Vpopa
p6239
sI6249
Vposta
p6240
sI6250
VprAMgaNa
p6241
sI6251
VprAMwa
p6242
sI6252
VprANijAwi
p6243
sI6253
VprAcInakAla
p6244
sI6254
VprAcInawama
p6245
sI6255
VprAisa
p6246
sI6256
VprAraMBa
p6247
sI6257
VprAwaH
p6248
sI6258
VprIjarva
p6249
sI6259
VprImiyama
p6250
sI6260
VprOYblamsa
p6251
sI6261
VprOYjekta
p6252
sI6262
VprOYpara
p6253
sI6263
VpraBAga
p6254
sI6264
VpraBAwa
p6255
sI6265
VpraKara
p6256
sI6266
VpraSAMwa
p6257
sI6267
VpraSikRaNa
p6258
sI6268
VprabaMXanoM
p6259
sI6269
VprabalawA
p6260
sI6270
Vpracura
p6261
sI6271
Vpragawi
p6262
sI6272
VprajApawi
p6263
sI6273
VprajAwiyAz
p6264
sI6274
VprakASama
p6265
sI6275
Vprakata
p6266
sI6276
VprakqRta
p6267
sI6277
VprakriyA
p6268
sI6278
VprakriyAoM
p6269
sI6279
Vpralamba
p6270
sI6280
VpramANa
p6271
sI6281
VpramoSana
p6272
sI6282
Vpramota
p6273
sI6283
VpramuKawA
p6274
sI6284
VprapAwoM
p6275
sI6285
VpraraMBika
p6276
sI6286
VprasAxa
p6277
sI6287
VprasWAna
p6278
sI6288
VprasaMgoM
p6279
sI6289
VprasixXi
p6280
sI6290
VpraswAviwa
p6281
sI6291
Vpraswuwi
p6282
sI6292
VpraswuwikaraNa
p6283
sI6293
VpravAla
p6284
sI6294
VpravAsI
p6285
sI6295
Vpravarwiwa
p6286
sI6296
VpraveSaxvAra
p6287
sI6297
Vpravqwwa
p6288
sI6298
VprawiBA
p6289
sI6299
VprawiBAgiyoM
p6290
sI6300
Vprawibimba
p6291
sI6301
VprawihAroM
p6292
sI6302
VprawikriyA
p6293
sI6303
VprawimA
p6294
sI6304
VprawimAha
p6295
sI6305
VprawiniXiwva
p6296
sI6306
VprawiroXa
p6297
sI6307
VprawiyogI
p6298
sI6308
VprawyakRawaH
p6299
sI6309
VpraxURaNa
p6300
sI6310
VpraxURiwa
p6301
sI6311
VpraxarSanakArI
p6302
sI6312
VpraxarSanoM
p6303
sI6313
Vprayojana
p6304
sI6314
VpreRaka
p6305
sI6315
VpregnaMta
p6306
sI6316
VprekRakoM
p6307
sI6317
Vprema
p6308
sI6318
VpreraNAwmaka
p6309
sI6319
VpreraNAxAyaka
p6310
sI6320
VpriMsa
p6311
sI6321
VprowsAhana
p6312
sI6322
VprowsAhiwa
p6313
sI6323
VpuNya
p6314
sI6324
VpunAKA
p6315
sI6325
VpunaH
p6316
sI6326
VpurAleKika
p6317
sI6327
VpurAvaSeRa
p6318
sI6328
VpurAwAwwvika
p6319
sI6329
VpurAwana
p6320
sI6330
VpurAwanika
p6321
sI6331
VpurI
p6322
sI6332
VpurUvI
p6323
sI6333
VpurwagAla
p6324
sI6334
Vputa
p6325
sI6335
Vpuwra
p6326
sI6336
VrAPta
p6327
sI6337
VrAPtoM
p6328
sI6338
VrARtrIyauxyAna
p6329
sI6339
VrARtrIyawA
p6330
sI6340
VrAXA
p6331
sI6341
VrAga
p6332
sI6342
VrAha
p6333
sI6343
VrAhawakArI
p6334
sI6344
VrAidiMga
p6335
sI6345
VrAija
p6336
sI6346
VrAjaGAta
p6337
sI6347
VrAjaGAtaH
p6338
sI6348
VrAjagIroM
p6339
sI6349
VrAjakAla
p6340
sI6350
VrAjanIwijFoM
p6341
sI6351
VrAjapUwoM
p6342
sI6352
VrAjaraMBA
p6343
sI6353
VrAjasWAnI
p6344
sI6354
VrAjeMxra
p6345
sI6355
VrAjjI
p6346
sI6356
VrAkeSa
p6347
sI6357
VrAmacaMxrana
p6348
sI6358
VrAmanAWapurama
p6349
sI6359
VrAmapura
p6350
sI6360
VrAmasewu
p6351
sI6361
VrAmeSvara
p6352
sI6362
VrAmohallI
p6353
sI6363
VrAniyoM
p6354
sI6364
VrAwoM
p6355
sI6365
VrAwrI
p6356
sI6366
VrAwrikAlIna
p6357
sI6367
VrAyacUra
p6358
sI6368
VrAyakara
p6359
sI6369
VrEdietara
p6360
sI6370
VrEgalInI
p6361
sI6371
VrEliMga
p6362
sI6372
VrEliyAz
p6363
sI6373
VrEliyoM
p6364
sI6374
VrIPa
p6365
sI6375
VrIjanebala
p6366
sI6376
VrIwibaxXa
p6367
sI6377
VrOnaka
p6368
sI6378
VrSatsa
p6369
sI6379
VrUla
p6370
sI6380
VrUpAMkiwa
p6371
sI6381
VrUpoM
p6372
sI6382
VrUsa
p6373
sI6383
VrUtIna
p6374
sI6384
VrUxrapura
p6375
sI6385
VraKAwA
p6376
sI6386
VraKavAlI
p6377
sI6387
VraKie
p6378
sI6388
VraKiegA
p6379
sI6389
VraMgA
p6380
sI6390
VraMgAnAWIttU
p6381
sI6391
VraMgAraMga
p6382
sI6392
VraMgIle
p6383
sI6393
VraMgabiraMgA
p6384
sI6394
VraMganA
p6385
sI6395
VraMgane
p6386
sI6396
VraMjanA
p6387
sI6397
VraNa
p6388
sI6398
VraNanIwi
p6389
sI6399
VraNawuMgA
p6390
sI6400
Vrabara
p6391
sI6401
VracanA
p6392
sI6402
VracanAoM
p6393
sI6403
Vrace
p6394
sI6404
Vraciwa
p6395
sI6405
Vrahasya
p6396
sI6406
Vrahasyamaya
p6397
sI6407
VrahasyapUrNa
p6398
sI6408
VrahasyoM
p6399
sI6409
Vrajistara
p6400
sI6410
VrakRA
p6401
sI6411
VrakRaka
p6402
sI6412
VrakRiwa
p6403
sI6413
VramIwaya
p6404
sI6414
VramaNIya
p6405
sI6415
VramagIna
p6406
sI6416
VramanagrAma
p6407
sI6417
VrarinajiMxA
p6408
sI6418
VrasAsvAxana
p6409
sI6419
VrasIxeM
p6410
sI6420
VrassEla
p6411
sI6421
VrassiyZoM
p6412
sI6422
VravivAra
p6413
sI6423
VreKAeM
p6414
sI6424
VreSA
p6415
sI6425
VreSama
p6416
sI6426
VredI
p6417
sI6427
VredImeda
p6418
sI6428
VregiswAnoM
p6419
sI6429
VrejOYrta
p6420
sI6430
VrejidensI
p6421
sI6431
VrekOYrda
p6422
sI6432
VrelagAdZI
p6423
sI6433
VrelagAdZiyoM
p6424
sI6434
Vrelaheda
p6425
sI6435
VrenArda
p6426
sI6436
VrenI
p6427
sI6437
Vrena
p6428
sI6438
VresOYrta
p6429
sI6439
VrewI
p6430
sI6440
VriJAegI
p6431
sI6441
VriJAne
p6432
sI6442
VriPreSa
p6433
sI6443
VriSwexAroM
p6434
sI6444
VriekSana
p6435
sI6445
Vriekta
p6436
sI6446
VrijZarvsa
p6437
sI6447
VrikwIkaraNa
p6438
sI6448
VrilEkseSana
p6439
sI6449
Vrilijansa
p6440
sI6450
Vriporta
p6441
sI6451
VrisOYEYrta
p6442
sI6452
Vriska
p6443
sI6453
Vrisortsa
p6444
sI6454
VrispOYnsibala
p6445
sI6455
Vrixama
p6446
sI6456
VriyAsaweM
p6447
sI6457
VriyAyawI
p6448
sI6458
VriyAyawoM
p6449
sI6459
VrodZa
p6450
sI6460
Vrodaveja
p6451
sI6461
Vrogana
p6452
sI6462
VrojI
p6453
sI6463
Vrojara
p6454
sI6464
VrokanA
p6455
sI6465
Vrolara
p6456
sI6466
VromAMcakArI
p6457
sI6467
VromAMciwa
p6458
sI6468
VromAMsa
p6459
sI6469
VromAnsa
p6460
sI6470
VromAntika
p6461
sI6471
Vroma
p6462
sI6472
VropaNa
p6463
sI6473
VrotI
p6464
sI6474
Vrskatsa
p6465
sI6475
Vruci
p6466
sI6476
VruhAnI
p6467
sI6477
Vrukawe
p6468
sI6478
VrukeM
p6469
sI6479
VrumasU
p6470
sI6480
VrunakwA
p6471
sI6481
VrupayA
p6472
sI6482
VrutIna
p6473
sI6483
Vrutasa
p6474
sI6484
Vrvalda
p6475
sI6485
VsAIva
p6476
sI6486
VsAIyA
p6477
sI6487
VsAMgalA
p6478
sI6488
VsAMpa
p6479
sI6489
VsAMpoM
p6480
sI6490
VsATa
p6481
sI6491
VsAWI
p6482
sI6492
VsAXane
p6483
sI6493
VsAdZiyo
p6484
sI6494
VsAgOna
p6485
sI6495
VsAhasakarma
p6486
sI6496
VsAhasikawA
p6487
sI6497
VsAhila
p6488
sI6498
VsAiMsa
p6489
sI6499
VsAikila
p6490
sI6500
VsAina
p6491
sI6501
VsAitasIna
p6492
sI6502
VsAlAnA
p6493
sI6503
VsAlaBara
p6494
sI6504
VsAmAnoM
p6495
sI6505
VsAmAnyawayA
p6496
sI6506
VsAmaMwa
p6497
sI6507
VsAmrAjyavAxa
p6498
sI6508
VsAmuI
p6499
sI6509
VsAngawsena
p6500
sI6510
VsAra
p6501
sI6511
VsArahAna
p6502
sI6512
VsArasenika
p6503
sI6513
VsAsanagIra
p6504
sI6514
VsAvaXAnIpUrvaka
p6505
sI6515
VsAvaXAniyAM
p6506
sI6516
VsAwavIM
p6507
sI6517
VsAwaveM
p6508
sI6518
VsAxA
p6509
sI6519
VsAxAbAxa
p6510
sI6520
VsAxI
p6511
sI6521
VsAyaMkAla
p6512
sI6522
VsAye
p6513
sI6523
VsEMkcurI
p6514
sI6524
VsEMta
p6515
sI6525
VsEPAyara
p6516
sI6526
VsElarI
p6517
sI6527
VsElarIda
p6518
sI6528
VsEleda
p6519
sI6529
VsEmyuela
p6520
sI6530
VsIDZInumA
p6521
sI6531
VsIDZiyAz
p6522
sI6532
VsIKA
p6523
sI6533
VsIKeMge
p6524
sI6534
VsIMgoM
p6525
sI6535
VsIPUda
p6526
sI6536
VsIdIjZa
p6527
sI6537
VsIiMga
p6528
sI6538
VsIjarsa
p6529
sI6539
VsImAcihna
p6530
sI6540
VsImAeM
p6531
sI6541
VsImacinha
p6532
sI6542
VsIna
p6533
sI6543
VsIrIjZa
p6534
sI6544
VsIrIja
p6535
sI6545
VsIriyasa
p6536
sI6546
VsOBAgyaSAlI
p6537
sI6547
VsORTava
p6538
sI6548
VsOXa
p6539
sI6549
VsOYksa
p6540
sI6550
VsPUrwixAyaka
p6541
sI6551
VsUJa
p6542
sI6552
VsUkRma
p6543
sI6553
VsUraxAsa
p6544
sI6554
VsUryA
p6545
sI6555
VsUryakAnwamaNI
p6546
sI6556
VsUtsa
p6547
sI6557
VsWajFanIya
p6548
sI6558
VsWalI
p6549
sI6559
VsWira
p6550
sI6560
VsaBA
p6551
sI6561
VsaBya
p6552
sI6562
VsaKwa
p6553
sI6563
VsaMBAla
p6554
sI6564
VsaMBAvanA
p6555
sI6565
VsaMBAvanAeM
p6556
sI6566
VsaMBala
p6557
sI6567
VsaMBalane
p6558
sI6568
VsaMBava
p6559
sI6569
VsaMBavawa
p6560
sI6570
VsaMGataka
p6561
sI6571
VsaMbaMXiwa
p6562
sI6572
VsaMbaxXa
p6563
sI6573
VsaMcAlaka
p6564
sI6574
VsaMcAlana
p6565
sI6575
VsaMgaTiwa
p6566
sI6576
VsaMgalA
p6567
sI6577
VsaMginI
p6568
sI6578
VsaMgrAhAlaya
p6569
sI6579
VsaMgrAma
p6570
sI6580
VsaMgrahAlayoM
p6571
sI6581
VsaMgrahiwa
p6572
sI6582
VsaMjarI
p6573
sI6583
VsaMjara
p6574
sI6584
VsaMkalana
p6575
sI6585
VsaMkarI
p6576
sI6586
VsaMkewa
p6577
sI6587
VsaMkrAMwi
p6578
sI6588
VsaMkrAwI
p6579
sI6589
VsaMlagna
p6580
sI6590
VsaMmiSraNa
p6581
sI6591
VsaMpUrNa
p6582
sI6592
VsaMracanAgawa
p6583
sI6593
VsaMrakRaNavAxI
p6584
sI6594
VsaMrakRakoM
p6585
sI6595
VsaMsWA
p6586
sI6596
VsaMsWAeM
p6587
sI6597
VsaMsWAna
p6588
sI6598
VsaMsWApaka
p6589
sI6599
VsaMsaxa
p6590
sI6600
VsaMskAroM
p6591
sI6601
VsaMvAxaxAwA
p6592
sI6602
VsaMvexanaSIlawA
p6593
sI6603
VsaMware
p6594
sI6604
VsaMxIpa
p6595
sI6605
VsaMxeSa
p6596
sI6606
VsaMyojana
p6597
sI6607
VsaPa
p6598
sI6608
VsaPersa
p6599
sI6609
VsaXe
p6600
sI6610
VsabakA
p6601
sI6611
Vsabake
p6602
sI6612
VsabarImAlA
p6603
sI6613
VsabbaravAla
p6604
sI6614
VsabjI
p6605
sI6615
VsabjiyAM
p6606
sI6616
VsabjiyoM
p6607
sI6617
VsabsidI
p6608
sI6618
Vsaca
p6609
sI6619
VsaccAI
p6610
sI6620
VsadZakeM
p6611
sI6621
Vsage
p6612
sI6622
VsahArA
p6613
sI6623
VsahAyaka
p6614
sI6624
VsahAyawA
p6615
sI6625
Vsaha
p6616
sI6626
Vsahaja
p6617
sI6627
Vsahamawa
p6618
sI6628
Vsahamawi
p6619
sI6629
VsahanIya
p6620
sI6630
Vsahayoga
p6621
sI6631
Vsahiba
p6622
sI6632
VsahyaxI
p6623
sI6633
VsajA
p6624
sI6634
VsajAkara
p6625
sI6635
VsajAne
p6626
sI6636
VsajAvata
p6627
sI6637
VsajIva
p6628
sI6638
Vsajaga
p6629
sI6639
VsakArAwmaka
p6630
sI6640
VsakRama
p6631
sI6641
Vsakane
p6632
sI6642
VsalAxina
p6633
sI6643
VsaletI
p6634
sI6644
VsamA
p6635
sI6645
VsamAM
p6636
sI6646
VsamAXiyAM
p6637
sI6647
VsamAXiyoM
p6638
sI6648
VsamAhiwa
p6639
sI6649
VsamAja
p6640
sI6650
VsamAnawA
p6641
sI6651
VsamUcA
p6642
sI6652
VsamaJanA
p6643
sI6653
VsamaJe
p6644
sI6654
VsamaJeM
p6645
sI6655
VsamarWana
p6646
sI6656
Vsamara
p6647
sI6657
VsamarasawA
p6648
sI6658
VsamarpaNa
p6649
sI6659
Vsamasvariwa
p6650
sI6660
VsamasyAeM
p6651
sI6661
VsamasyAoM
p6652
sI6662
Vsamaxa
p6653
sI6663
VsamayAvaXi
p6654
sI6664
VsamayAvaXiyoM
p6655
sI6665
VsambaMXI
p6656
sI6666
VsambaMXiwa
p6657
sI6667
Vsamita
p6658
sI6668
VsammiSraNa
p6659
sI6669
Vsamparka
p6660
sI6670
VsamqxXawama
p6661
sI6671
VsamqxXi
p6662
sI6672
VsamrAtoM
p6663
sI6673
VsamuxrawatIya
p6664
sI6674
Vsan
p6665
sI6675
VsanalAita
p6666
sI6676
Vsanaseta
p6667
sI6677
VsanasitI
p6668
sI6678
Vsanave
p6669
sI6679
Vsapre
p6670
sI6680
VsapwAha
p6671
sI6681
VsarAbora
p6672
sI6682
VsarAhawe
p6673
sI6683
VsarIsqpoM
p6674
sI6684
VsarabajIwa
p6675
sI6685
Vsaralawama
p6676
sI6686
Vsarapata
p6677
sI6687
Vsarasvawi
p6678
sI6688
VsarpA
p6679
sI6689
VsarpIlI
p6680
sI6690
VsarvA
p6681
sI6691
VsarvapraWama
p6682
sI6692
VsarvekRaNa
p6683
sI6693
VsarvoMwwama
p6684
sI6694
VsarxI
p6685
sI6695
VsarxiyAM
p6686
sI6696
VsaspeMSana
p6687
sI6697
Vsate
p6688
sI6698
Vsavere
p6689
sI6699
VsawaheM
p6690
sI6700
Vsawaluja
p6691
sI6701
Vsawawa
p6692
sI6702
Vsawra
p6693
sI6703
VsawroM
p6694
sI6704
Vsaxarna
p6695
sI6705
Vsaxasya
p6696
sI6706
VsaxasyawA
p6697
sI6707
Vsaxupayoga
p6698
sI6708
VsayAjI
p6699
sI6709
VsePa
p6700
sI6710
VseSaMsa
p6701
sI6711
VsebAsiyana
p6702
sI6712
Vseba
p6703
sI6713
VsegameMta
p6704
sI6714
VselaPona
p6705
sI6715
Vselibreta
p6706
sI6716
VsemI
p6707
sI6717
VseminarI
p6708
sI6718
VseremanI
p6709
sI6719
VsevAeM
p6710
sI6720
VsevAez
p6711
sI6721
Vseva
p6712
sI6722
VsiKAI
p6713
sI6723
VsiKAwe
p6714
sI6724
VsiMgala
p6715
sI6725
VsiMka
p6716
sI6726
VsicueSana
p6717
sI6727
VsikKoM
p6718
sI6728
Vsikanesa
p6719
sI6729
VsikanxarAbAxa
p6720
sI6730
VsikudZane
p6721
sI6731
VsikyoritI
p6722
sI6732
VsilikOYna
p6723
sI6733
Vsilikana
p6724
sI6734
Vsimbola
p6725
sI6735
Vsinetoriyama
p6726
sI6736
VsipAhiyoM
p6727
sI6737
VsirPZa
p6728
sI6738
Vsira
p6729
sI6739
VsitAdela
p6730
sI6740
VsitIja
p6731
sI6741
Vsitrasa
p6732
sI6742
VsiwArA
p6733
sI6743
VsiwAroM
p6734
sI6744
VsiyAcina
p6735
sI6745
VskImoM
p6736
sI6746
VskImsa
p6737
sI6747
VskU
p6738
sI6748
VskUtarsa
p6739
sI6749
VskaMxa
p6740
sI6750
Vskalpacarsa
p6741
sI6751
Vskaveyara
p6742
sI6752
Vskepsa
p6743
sI6753
Vskida
p6744
sI6754
Vskilda
p6745
sI6755
Vskilsa
p6746
sI6756
VskvAyara
p6747
sI6757
Vskveyara
p6748
sI6758
VslIvalesa
p6749
sI6759
VslOYta
p6750
sI6760
VslaSa
p6751
sI6761
Vslopa
p6752
sI6762
Vslopsa
p6753
sI6763
VsmArakoM
p6754
sI6764
VsmiWa
p6755
sI6765
VsmqwiyoM
p6756
sI6766
VsnAkela
p6757
sI6767
VsnIkarsa
p6758
sI6768
Vsneha
p6759
sI6769
Vso
p6760
sI6770
VsoSala
p6761
sI6771
VsocA
p6762
sI6772
VsocI
p6763
sI6773
Vsocakara
p6764
sI6774
Vsocawe
p6765
sI6775
VsoceMge
p6766
sI6776
Vsocie
p6767
sI6777
VsoeM
p6768
sI6778
VsohanaMga
p6769
sI6779
Vsokara
p6770
sI6780
Vsolana
p6771
sI6781
Vsolara
p6772
sI6782
VsolyUSana
p6773
sI6783
Vsoma
p6774
sI6784
VsomanAWa
p6775
sI6785
VsomanAWapura
p6776
sI6786
VsomavAra
p6777
sI6787
VsomeSvara
p6778
sI6788
VsomorIrI
p6779
sI6789
VsonI
p6780
sI6790
Vsonamarga
p6781
sI6791
VsopAna
p6782
sI6792
Vsowe
p6783
sI6793
VspAja
p6784
sI6794
VspAuja
p6785
sI6795
VspIdabota
p6786
sI6796
VspIwI
p6787
sI6797
VspIwi
p6788
sI6798
VspaMjoM
p6789
sI6799
VspaRta
p6790
sI6800
VspaRtawaH
p6791
sI6801
VspeSalitI
p6792
sI6802
VsportI
p6793
sI6803
Vsporta
p6794
sI6804
VspriMga
p6795
sI6805
VsqRtI
p6796
sI6806
VsqjanAwmaka
p6797
sI6807
Vsqjana
p6798
sI6808
VsqjanakarwA
p6799
sI6809
Vsqjiwa
p6800
sI6810
VstAila
p6801
sI6811
VstArta
p6802
sI6812
VstElina
p6803
sI6813
VstIla
p6804
sI6814
VstImara
p6805
sI6815
VstadI
p6806
sI6816
Vsteara
p6807
sI6817
Vstediyama
p6808
sI6818
Vsteja
p6809
sI6819
Vstena
p6810
sI6820
Vstenalesa
p6811
sI6821
Vstonsa
p6812
sI6822
Vstorsa
p6813
sI6823
VstrIma
p6814
sI6824
VsuIyoM
p6815
sI6825
VsuKaxAyI
p6816
sI6826
VsuKaxeva
p6817
sI6827
VsuMxaranagara
p6818
sI6828
VsuMxariyAM
p6819
sI6829
VsuSoBiwa
p6820
sI6830
VsuXAraka
p6821
sI6831
VsuXArana
p6822
sI6832
VsuXaregI
p6823
sI6833
Vsuara
p6824
sI6834
VsudOlapana
p6825
sI6835
Vsugamya
p6826
sI6836
VsugamyawA
p6827
sI6837
VsuhAnA
p6828
sI6838
VsuhAvanI
p6829
sI6839
VsujIwa
p6830
sI6840
VsulaJane
p6831
sI6841
VsulawAnA
p6832
sI6842
VsunAne
p6833
sI6843
VsunI
p6834
sI6844
VsunIla
p6835
sI6845
Vsunane
p6836
sI6846
VsunxarawApUrvaka
p6837
sI6847
Vsupara
p6838
sI6848
Vsuparaeksapresa
p6839
sI6849
VsuparamArkita
p6840
sI6850
VsuprasixXa
p6841
sI6851
VsurIle
p6842
sI6852
VsurUra
p6843
sI6853
Vsura
p6844
sI6854
VsuraMgoM
p6845
sI6855
Vsusajjiwa
p6846
sI6856
VsuswA
p6847
sI6857
Vsuswa
p6848
sI6858
VsuvAsiwa
p6849
sI6859
Vsuviswqwa
p6850
sI6860
VsuvyavasWiwa
p6851
sI6861
VsvAmI
p6852
sI6862
VsvAxiRta
p6853
sI6863
VsvIta
p6854
sI6864
VsvacCaMxa
p6855
sI6865
Vsvapna
p6856
sI6866
VsvarNa
p6857
sI6867
Vsvarupa
p6858
sI6868
VsvaxeSI
p6859
sI6869
VsvayaM
p6860
sI6870
Vsvisa
p6861
sI6871
VswaMBasamUhoM
p6862
sI6872
VswaMBoM
p6863
sI6873
VswabXa
p6864
sI6874
Vswrowa
p6865
sI6875
VtAIdsa
p6866
sI6876
VtAbo
p6867
sI6877
VtAilata
p6868
sI6878
VtAimara
p6869
sI6879
VtAla
p6870
sI6880
VtApU
p6871
sI6881
VtAuna
p6872
sI6882
VtAunaSipa
p6873
sI6883
VtEksiyAM
p6874
sI6884
VtEksiyoM
p6875
sI6885
VtEniMga
p6876
sI6886
VtOYpalesa
p6877
sI6887
VtOYvarsa
p6878
sI6888
VtUrastisa
p6879
sI6889
VtUroM
p6880
sI6890
VtUtI
p6881
sI6891
VtakatakI
p6882
sI6892
VtamAtara
p6883
sI6893
VteDZI
p6884
sI6894
VteMSana
p6885
sI6895
VteMparecara
p6886
sI6896
VtebalatOYpa
p6887
sI6897
VtebaloM
p6888
sI6898
VtedI
p6889
sI6899
VteksAjZa
p6890
sI6900
VtelIkOYnPreMsiMga
p6891
sI6901
VtelikAsta
p6892
sI6902
Vtempala
p6893
sI6903
VteratarI
p6894
sI6904
VtiSyU
p6895
sI6905
VtikAU
p6896
sI6906
Vtika
p6897
sI6907
VtikateM
p6898
sI6908
VtikatiMga
p6899
sI6909
VtimatimAwe
p6900
sI6910
Vtonsa
p6901
sI6911
VtrAPiyAz
p6902
sI6912
VtrAuta
p6903
sI6913
VtrEvalaroM
p6904
sI6914
VtrUpa
p6905
sI6915
VtrakoM
p6906
sI6916
Vtrampa
p6907
sI6917
VtreMdI
p6908
sI6918
Vtreda
p6909
sI6919
Vtrekara
p6910
sI6920
VtrekoM
p6911
sI6921
Vtrelsa
p6912
sI6922
Vtrenara
p6913
sI6923
VtreniMga
p6914
sI6924
Vtrevarsa
p6915
sI6925
Vtu
p6916
sI6926
Vturista
p6917
sI6927
VtusAdsa
p6918
sI6928
Vtvina
p6919
sI6929
VuBarawe
p6920
sI6930
VuBayacara
p6921
sI6931
VuCAla
p6922
sI6932
VuCala
p6923
sI6933
VuMGawe
p6924
sI6934
VuMgaliyAM
p6925
sI6935
VuMgaliyoM
p6926
sI6936
VuTAI
p6927
sI6937
VuTAe
p6928
sI6938
VuTAeM
p6929
sI6939
VuTApataka
p6930
sI6940
VuTakara
p6931
sI6941
VuTanA
p6932
sI6942
VuTane
p6933
sI6943
VuTawA
p6934
sI6944
VuTawe
p6935
sI6945
VuTe
p6936
sI6946
VuXamasiMha
p6937
sI6947
VuXara
p6938
sI6948
VubArane
p6939
sI6949
VubalA
p6940
sI6950
Vuccawama
p6941
sI6951
Vuccawara
p6942
sI6952
VudZAne
p6943
sI6953
VudZawI
p6944
sI6954
VudZawe
p6945
sI6955
Vugane
p6946
sI6956
VugawA
p6947
sI6957
Vugawe
p6948
sI6958
Vugrawama
p6949
sI6959
VujarA
p6950
sI6960
Vujjavala
p6951
sI6961
VulaJa
p6952
sI6962
VulasUra
p6953
sI6963
VullAsakArI
p6954
sI6964
VulliKiwa
p6955
sI6965
VultA
p6956
sI6966
Vumiyama
p6957
sI6967
Vunhone
p6958
sI6968
VunmAxa
p6959
sI6969
VupAXyakRa
p6960
sI6970
VupAya
p6961
sI6971
VupajI
p6962
sI6972
Vupakenxra
p6963
sI6973
Vupakrama
p6964
sI6974
VupamA
p6965
sI6975
VupamahAxvIpa
p6966
sI6976
VupanAma
p6967
sI6977
VupavanoM
p6968
sI6978
VupaxeSa
p6969
sI6979
VupayogI
p6970
sI6980
VupoRNa
p6971
sI6981
VupoRNakatibaMXIya
p6972
sI6982
VuppAdA
p6973
sI6983
Vurvara
p6974
sI6984
Vusako
p6975
sI6985
VuttAnaWulala
p6976
sI6986
VuwArane
p6977
sI6987
Vuwane
p6978
sI6988
Vuwara
p6979
sI6989
Vuwarakara
p6980
sI6990
VuwkqRtawApUrvaka
p6981
sI6991
VuwpAxa
p6982
sI6992
VuwpAxaka
p6983
sI6993
VuwpAxiwa
p6984
sI6994
VuwpAxoM
p6985
sI6995
Vuwpawwi
p6986
sI6996
VuwsavoM
p6987
sI6997
Vuwwapama
p6988
sI6998
VuwwarakAla
p6989
sI6999
VuwwarapUrvI
p6990
sI7000
Vuwwejaka
p6991
sI7001
VuwwuMga
p6992
sI7002
VuxAharaNoM
p6993
sI7003
VuxBUwa
p6994
sI7004
VuxGAtana
p6995
sI7005
VuxahAraNa
p6996
sI7006
Vuxgama
p6997
sI7007
Vuxiwa
p6998
sI7008
VuxxeSya
p6999
sI7009
VuxyamiyoM
p7000
sI7010
VuxyorAlaya
p7001
sI7011
VvAIsarIgala
p7002
sI7012
VvAMCanIya
p7003
sI7013
VvAMCiwa
p7004
sI7014
VvAcatOYvara
p7005
sI7015
VvAciMga
p7006
sI7016
VvAibreMta
p7007
sI7017
VvAina
p7008
sI7018
VvAjiba
p7009
sI7019
VvAkiPa
p7010
sI7020
VvAmanoM
p7011
sI7021
VvAmapaMWa
p7012
sI7022
VvAmapaMWiyoM
p7013
sI7023
VvAnadUra
p7014
sI7024
VvAnikI
p7015
sI7025
VvArANasI
p7016
sI7026
VvAsa
p7017
sI7027
VvAsiyoM
p7018
sI7028
VvAsko
p7019
sI7029
VvAsukiwAla
p7020
sI7030
VvAsuxeva
p7021
sI7031
VvAswavikawA
p7022
sI7032
VvAswu
p7023
sI7033
VvAswuSilpIya
p7024
sI7034
VvAswuSilpa
p7025
sI7035
VvAswukAra
p7026
sI7036
VvAswuvix
p7027
sI7037
VvAtikA
p7028
sI7038
VvAxiyAM
p7029
sI7039
VvAxoM
p7030
sI7040
VvAyusevAoM
p7031
sI7041
VvEBava
p7032
sI7042
VvERNo
p7033
sI7043
VvEksa
p7034
sI7044
VvElyU
p7035
sI7045
VvEna
p7036
sI7046
VvEviXyapUrNa
p7037
sI7047
VvIjAoM
p7038
sI7048
VvIjZA
p7039
sI7049
VvIragAWA
p7040
sI7050
VvOYkiMga
p7041
sI7051
VvOYlIbOYla
p7042
sI7052
VvOYlaMtiyara
p7043
sI7053
VvOYltara
p7044
sI7054
VvOYrma
p7045
sI7055
VvOYrmiMga
p7046
sI7056
VvOYtaraprUPa
p7047
sI7057
VvOYtaravarlda
p7048
sI7058
VvaMSa
p7049
sI7059
VvaMSaja
p7050
sI7060
VvaMSajoM
p7051
sI7061
VvaMdUra
p7052
sI7062
VvaMdara
p7053
sI7063
VvaMxAvana
p7054
sI7064
VvaXa
p7055
sI7065
VvahAz
p7056
sI7066
Vvahana
p7057
sI7067
VvajaheM
p7058
sI7068
Vvajana
p7059
sI7069
VvalaMbI
p7060
sI7070
VvanamAnuRa
p7061
sI7071
Vvanaspawi
p7062
sI7072
VvanavAsI
p7063
sI7073
VvanavAsa
p7064
sI7074
VvarNiwa
p7065
sI7075
VvarRIya
p7066
sI7076
VvarSa
p7067
sI7077
VvarUNa
p7068
sI7078
VvariRTa
p7069
sI7079
VvarmA
p7070
sI7080
Vvarmana
p7071
sI7081
VvarrrARa
p7072
sI7082
VvasUlA
p7073
sI7083
VvasUlawI
p7074
sI7084
VvasaMwa
p7075
sI7085
Vvaswra
p7076
sI7086
Vvaswuez
p7077
sI7087
VvaswuwaH
p7078
sI7088
VveMcara
p7079
sI7089
VveMkataramanasvAmI
p7080
sI7090
VveNugopAla
p7081
sI7091
VveSaBURA
p7082
sI7092
VveSyA
p7083
sI7093
VvegAsa
p7084
sI7094
Vvelakama
p7085
sI7095
VvelhA
p7086
sI7096
Vvelsa
p7087
sI7097
Vvemana
p7088
sI7098
Vvenisa
p7089
sI7099
VverAvala
p7090
sI7100
Vvestarna
p7091
sI7101
Vveta
p7092
sI7102
Vvetara
p7093
sI7103
VvetiMga
p7094
sI7104
Vvevsa
p7095
sI7105
VvexApurIsavararAra
p7096
sI7106
VvhIla
p7097
sI7107
VviBAjiwa
p7098
sI7108
VviMga
p7099
sI7109
VviMteja
p7100
sI7110
VviRamawAoM
p7101
sI7111
VviSAlakAya
p7102
sI7112
VviSeRajFoM
p7103
sI7113
VviSiRtawA
p7104
sI7114
VviSleRaka
p7105
sI7115
VviSleRakoM
p7106
sI7116
VviXAnasaBA
p7107
sI7117
VviXi
p7108
sI7118
VvibAdZI
p7109
sI7119
VvicAraXArA
p7110
sI7120
VvicArakoM
p7111
sI7121
VvicAroM
p7112
sI7122
Vviciwra
p7113
sI7123
VvijFAniyoM
p7114
sI7124
VvijFApana
p7115
sI7125
VvijayA
p7116
sI7126
Vvijayanagara
p7117
sI7127
VvijewA
p7118
sI7128
VvijewAoM
p7119
sI7129
VvijibilitI
p7120
sI7130
VvikAsaSIla
p7121
sI7131
VviktoriyA
p7122
sI7132
VvilIna
p7123
sI7133
Vvimina
p7124
sI7134
Vvimohiwa
p7125
sI7135
Vvinaya
p7126
sI7136
VvinxuoM
p7127
sI7137
VvinyAsa
p7128
sI7138
VviparIwa
p7129
sI7139
Vvipro
p7130
sI7140
VvirAsawI
p7131
sI7141
VviroXABAsI
p7132
sI7142
VviroXI
p7133
sI7143
VviroXa
p7134
sI7144
VviskI
p7135
sI7145
Vvismiwa
p7136
sI7146
VvivAxoM
p7137
sI7147
VvivaXa
p7138
sI7148
VvivaraNa
p7139
sI7149
VvivaraNikAoM
p7140
sI7150
VviviXA
p7141
sI7151
VviviXa
p7142
sI7152
VviviXawAoM
p7143
sI7153
VvixeSoM
p7144
sI7154
VvixvAnoM
p7145
sI7155
VvixyAlaya
p7146
sI7156
VvixyAna
p7147
sI7157
VvixyamAna
p7148
sI7158
VvixyuwIya
p7149
sI7159
Vviyara
p7150
sI7160
VviyenA
p7151
sI7161
Vvo
p7152
sI7162
VvodeyAra
p7153
sI7163
VvodeyArsa
p7154
sI7164
VvotiMga
p7155
sI7165
Vvqhaxa
p7156
sI7166
VvqwwAkAra
p7157
sI7167
VvqxXi
p7158
sI7168
Vvuda
p7159
sI7169
VvyApArI
p7160
sI7170
VvyApArika
p7161
sI7171
VvyApAriyoM
p7162
sI7172
VvyAsa
p7163
sI7173
VvyAyAmaSAlAez
p7164
sI7174
VvyaMgya
p7165
sI7175
Vvyakwiwva
p7166
sI7176
VvyavasWiwa
p7167
sI7177
VwA
p7168
sI7178
VwAMgalAMga
p7169
sI7179
VwAjA
p7170
sI7180
VwAjI
p7171
sI7181
VwAjagI
p7172
sI7182
VwAlAba
p7173
sI7183
VwAlAboM
p7174
sI7184
VwAle
p7175
sI7185
VwAliyoM
p7176
sI7186
VwAma
p7177
sI7187
VwArA
p7178
sI7188
VwArAmaNdala
p7179
sI7189
VwArIKa
p7180
sI7190
VwAranewara
p7181
sI7191
VwAre
p7182
sI7192
VwAroM
p7183
sI7193
VwAumra
p7184
sI7194
VwEnAwa
p7185
sI7195
VwIrWoM
p7186
sI7196
VwIsarI
p7187
sI7197
VwIswA
p7188
sI7198
VwUwAKAnUma
p7189
sI7199
VwaMbU
p7190
sI7200
VwaMwra
p7191
sI7201
VwaMwroM
p7192
sI7202
VwabAhI
p7193
sI7203
VwahakIkAwa
p7194
sI7204
VwahasIlaxAra
p7195
sI7205
VwakanIka
p7196
sI7206
VwakwasaMga
p7197
sI7207
VwalASA
p7198
sI7208
VwalASI
p7199
sI7209
Vwamadila
p7200
sI7210
VwamannA
p7201
sI7211
VwanAva
p7202
sI7212
Vwana
p7203
sI7213
Vwane
p7204
sI7214
VwarAI
p7205
sI7215
VwarASI
p7206
sI7216
VwarAiyoM
p7207
sI7217
VwaraNa
p7208
sI7218
VwaraPZa
p7209
sI7219
VwaraSavAwI
p7210
sI7220
VwaraSavAwIM
p7211
sI7221
VwarakIba
p7212
sI7222
VwarakkI
p7213
sI7223
VwarowAjA
p7214
sI7224
VwaruNa
p7215
sI7225
VwasvIreM
p7216
sI7226
VwatavarwI
p7217
sI7227
VwawvoM
p7218
sI7228
VwejZa
p7219
sI7229
Vwenxue
p7220
sI7230
VwimAhI
p7221
sI7231
VwipI
p7222
sI7232
VwirUpawi
p7223
sI7233
VwirUvannawapurama
p7224
sI7234
VwirakRe
p7225
sI7235
Vwivvawa
p7226
sI7236
VwodZawI
p7227
sI7237
VwopeM
p7228
sI7238
VworaNa
p7229
sI7239
VworaNapaWa
p7230
sI7240
VworaNoM
p7231
sI7241
VwrASigaMga
p7232
sI7242
VwrAvaNakora
p7233
sI7243
VwrewA
p7234
sI7244
VwriSUla
p7235
sI7245
VwrikoNa
p7236
sI7246
VwripurA
p7237
sI7247
VwriveMxrama
p7238
sI7248
VwriveNI
p7239
sI7249
Vwrixeva
p7240
sI7250
VwriyuMda
p7241
sI7251
VwuMgaBaxrA
p7242
sI7252
Vwuma
p7243
sI7253
VwurkI
p7244
sI7254
VwvacA
p7245
sI7255
Vwwwhimachaltourismcom
p7246
sI7256
VwyAga
p7247
sI7257
VwyohAroM
p7248
sI7258
VxAIM
p7249
sI7259
VxAMva
p7250
sI7260
VxAhine
p7251
sI7261
VxAmoxara
p7252
sI7262
VxArjiliMga
p7253
sI7263
VxAswAM
p7254
sI7264
VxAswAna
p7255
sI7265
VxAvakI
p7256
sI7266
VxAvawa
p7257
sI7267
VxEnika
p7258
sI7268
VxIM
p7259
sI7269
VxIpeSa
p7260
sI7270
VxIrGAez
p7261
sI7271
VxOdZAeM
p7262
sI7272
VxOdZAne
p7263
sI7273
VxOdZane
p7264
sI7274
VxOdZawI
p7265
sI7275
VxOlawa
p7266
sI7276
VxOre
p7267
sI7277
VxUXiyA
p7268
sI7278
VxUba
p7269
sI7279
VxUna
p7270
sI7280
VxUriyoM
p7271
sI7281
VxUwAvAsoM
p7272
sI7282
VxaMdAXikArI
p7273
sI7283
VxaMwa
p7274
sI7284
VxaMwakaWAeM
p7275
sI7285
VxaPZanAyA
p7276
sI7286
VxaSA
p7277
sI7287
VxaSAoM
p7278
sI7288
VxaSaharA
p7279
sI7289
VxabAeM
p7280
sI7290
Vxabakara
p7281
sI7291
VxalaxalIya
p7282
sI7292
Vxama
p7283
sI7293
VxamaxAra
p7284
sI7294
Vxanwa
p7285
sI7295
VxarSaka
p7286
sI7296
VxarSakoM
p7287
sI7297
VxarSanoM
p7288
sI7298
VxarabAra
p7289
sI7299
VxaravAjZA
p7290
sI7300
VxaravAje
p7291
sI7301
VxariyA
p7292
sI7302
Vxarja
p7293
sI7303
Vxarjana
p7294
sI7304
Vxarxa
p7295
sI7305
VxasAvaWarama
p7296
sI7306
VxaswAveja
p7297
sI7307
VxaswakArI
p7298
sI7308
VxaswakAra
p7299
sI7309
VxavAiyoM
p7300
sI7310
VxawwAwreya
p7301
sI7311
VxayAnaMxa
p7302
sI7312
VxeKIM
p7303
sI7313
VxeKareKa
p7304
sI7314
VxeKawA
p7305
sI7315
VxeKawI
p7306
sI7316
VxeKeMge
p7307
sI7317
VxeMgI
p7308
sI7318
VxeSAMwarika
p7309
sI7319
VxeSaBara
p7310
sI7320
VxeSavAla
p7311
sI7321
VxegA
p7312
sI7322
Vxekara
p7313
sI7323
VxesI
p7314
sI7324
Vxeva
p7315
sI7325
VxevalAlI
p7316
sI7326
VxevawA
p7317
sI7327
VxevawAo
p7318
sI7328
VxevawAoM
p7319
sI7329
VxevaxUwa
p7320
sI7330
Vxevo
p7321
sI7331
VxevoM
p7322
sI7332
Vxi
p7323
sI7333
VxiKAwA
p7324
sI7334
VxiKAwe
p7325
sI7335
VxiKa
p7326
sI7336
VxiKawe
p7327
sI7337
VxiKe
p7328
sI7338
VxiSAnirxeSa
p7329
sI7339
VxiSAoM
p7330
sI7340
Vxigambara
p7331
sI7341
VxilAne
p7332
sI7342
VxilaWamana
p7333
sI7343
VxilavA
p7334
sI7344
VxilavAne
p7335
sI7345
VxinaBara
p7336
sI7346
VxinagI
p7337
sI7347
Vxiowa
p7338
sI7348
VxirAMga
p7339
sI7349
VxivAlI
p7340
sI7350
VxivAreM
p7341
sI7351
VxivAroM
p7342
sI7352
VxivasIya
p7343
sI7353
Vxivasa
p7344
sI7354
Vxivya
p7345
sI7355
VxivyaxarSI
p7346
sI7356
VxoRarahiwa
p7347
sI7357
VxoRiyoM
p7348
sI7358
VxoharAne
p7349
sI7359
VxoharI
p7350
sI7360
VxomaMjilA
p7351
sI7361
Vxopahara
p7352
sI7362
VxoswI
p7353
sI7363
VxqDZalomI
p7354
sI7364
VxqDZawApUrvaka
p7355
sI7365
Vxravidiyana
p7356
sI7366
Vxu
p7357
sI7367
VxuA
p7358
sI7368
VxuKoM
p7359
sI7369
VxuSAle
p7360
sI7370
VxuXA
p7361
sI7371
Vxugarma
p7362
sI7372
VxugunI
p7363
sI7373
VxulArawI
p7364
sI7374
VxurBAgya
p7365
sI7375
VxurboXa
p7366
sI7376
Vxurgama
p7367
sI7377
VxurgoM
p7368
sI7378
VxvIpIya
p7369
sI7379
VxvivexI
p7370
sI7380
VyAwanAoM
p7371
sI7381
VyAwrI
p7372
sI7382
VyAxoM
p7373
sI7383
VyOYtoM
p7374
sI7384
VyOna
p7375
sI7385
VyOvana
p7376
sI7386
VyUWa
p7377
sI7387
VyUeI
p7378
sI7388
VyUjara
p7379
sI7389
VyUnIka
p7380
sI7390
VyUnivarsitI
p7381
sI7391
VyUniyana
p7382
sI7392
VyUtarasa
p7383
sI7393
Vya
p7384
sI7394
VyaMgastarsa
p7385
sI7395
VyaMwravijFAna
p7386
sI7396
VyaMwroM
p7387
sI7397
VyaSoxA
p7388
sI7398
VyaWArWavAxiyoM
p7389
sI7399
VyaWociwa
p7390
sI7400
VyahOYz
p7391
sI7401
Vyelo
p7392
sI7402
VyojanAoM
p7393
sI7403
Vyuga
p7394
sI7404
Vyugala
p7395
sI7405
Vyukwi
p7396
sI7406
VyuvAoM
p7397
sI7407
VyuvawiyAM
p7398
sI7408
VyuxGa
p7399
sI7409
VyuxXa
p7400
sI7410
VyuxXanIwika
p7401
ss.