(dp1
S'id_to_char'
p2
(dp3
I0
Va
sI1
VA
sI2
Ve
sI3
Vk
sI4
Vr
sI5
Vs
sI6
VM
sI7
Vh
sI8
Vi
sI9
VI
sI10
Vn
sI11
Vm
sI12
Vl
sI13
Vw
sI14
Vo
sI15
Vp
sI16
VE
sI17
Vy
sI18
Vj
sI19
Vx
sI20
Vv
sI21
Vu
sI22
Vb
sI23
Vt
sI24
Vg
sI25
V.
sI26
VO
sI27
VU
sI28
VS
sI29
V,
sI30
Vc
sI31
Vd
sI32
VB
sI33
VW
sI34
VK
sI35
VP
sI36
VZ
sI37
VY
sI38
VX
sI39
VC
sI40
VR
sI41
V-
sI42
VN
sI43
VG
sI44
V0
sI45
V1
sI46
Vq
sI47
VT
sI48
VD
sI49
Vz
sI50
V5
sI51
VJ
sI52
V2
sI53
V3
sI54
V4
sI55
V'
sI56
V9
sI57
V8
sI58
V6
sI59
V"
sI60
V7
sI61
V\u201c
sI62
V(
sI63
V)
sI64
V?
sI65
VH
sI66
VF
sI67
V:
sI68
V_
sI69
V!
sI70
V/
sI71
V@
sI72
VV
ssS'id_to_tag'
p4
(dp5
I0
VO
sI1
VB-LOC
p6
sI2
VB-MISC
p7
sI3
VB-PER
p8
sI4
VB-ORG
p9
sI5
VI-PER
p10
sI6
VI-LOC
p11
sI7
VI-MISC
p12
ssS'id_to_word'
p13
(dp14
I0
S'<UNK>'
p15
sI1
V.
sI2
Vke
p16
sI3
VhE
p17
sI4
V,
sI5
VmeM
p18
sI6
VkI
p19
sI7
Vse
p20
sI8
VOra
p21
sI9
VhEM
p22
sI10
VkA
p23
sI11
Vko
p24
sI12
Vpara
p25
sI13
Veka
p26
sI14
VBI
p27
sI15
Vlie
p28
sI16
V-
sI17
VyahAM
p29
sI18
Visa
p30
sI19
Vyaha
p31
sI20
VhI
p32
sI21
Vki
p33
sI22
VApa
p34
sI23
Vwo
p35
sI24
VnahIM
p36
sI25
VsAWa
p37
sI26
Vne
p38
sI27
Vsakawe
p39
sI28
VjA
p40
sI29
Vkara
p41
sI30
VkuCa
p42
sI31
Vapane
p43
sI32
VWA
p44
sI33
Vho
p45
sI34
Vwaka
p46
sI35
VjAwA
p47
sI36
Vkarane
p48
sI37
VApako
p49
sI38
Vjo
p50
sI39
VvAle
p51
sI40
VkiyA
p52
sI41
VkaI
p53
sI42
Vlekina
p54
sI43
VgayA
p55
sI44
Vva
p56
sI45
VyA
p57
sI46
VbAxa
p58
sI47
VvahAM
p59
sI48
Vbahuwa
p60
sI49
Visake
p61
sI50
VSahara
p62
sI51
VsWiwa
p63
sI52
Vwaraha
p64
sI53
Vagara
p65
sI54
VapanI
p66
sI55
VpAsa
p67
sI56
Vjagaha
p68
sI57
VmaMxira
p69
sI58
VxOrAna
p70
sI59
VsakawA
p71
sI60
VjAne
p72
sI61
Vrahe
p73
sI62
Vsabase
p74
sI63
VBArawa
p75
sI64
VbIca
p76
sI65
VtrEvala
p77
sI66
Vina
p78
sI67
Vhone
p79
sI68
Vkarawe
p80
sI69
VrahA
p81
sI70
Vhue
p82
sI71
V'
sI72
VjahAM
p83
sI73
Vpahale
p84
sI74
VhuA
p85
sI75
VjAnA
p86
sI76
Vsamaya
p87
sI77
Vkama
p88
sI78
VparyatakoM
p89
sI79
VxillI
p90
sI80
VkilomItara
p91
sI81
VxeSa
p92
sI82
VjyAxA
p93
sI83
VlogoM
p94
sI84
Vhotala
p95
sI85
VrahI
p96
sI86
Vna
p97
sI87
VxvArA
p98
sI88
VAne
p99
sI89
VkahA
p100
sI90
VxUra
p101
sI91
VxeKane
p102
sI92
VevaM
p103
sI93
VjAwI
p104
sI94
VkAPI
p105
sI95
VsAla
p106
sI96
VkisI
p107
sI97
V"
sI98
VEse
p108
sI99
VKUbasUrawa
p109
sI100
ValAvA
p110
sI101
Vle
p111
sI102
VyAwrA
p112
sI103
VWe
p113
sI104
VhowA
p114
sI105
VwamAma
p115
sI106
VApake
p116
sI107
Vlekara
p117
sI108
Vvaha
p118
sI109
Valaga
p119
sI110
VvAlI
p120
sI111
Vvajaha
p121
sI112
VWI
p122
sI113
VkoI
p123
sI114
VnAma
p124
sI115
Vparyatana
p125
sI116
VraKeM
p126
sI117
VbAre
p127
sI118
VbAwa
p128
sI119
VhuI
p129
sI120
Vbehaxa
p130
sI121
Vloga
p131
sI122
VrUpa
p132
sI123
VjarUra
p133
sI124
VpAnI
p134
sI125
VsWAna
p135
sI126
VhAlAMki
p136
sI127
Vhara
p137
sI128
VsaBI
p138
sI129
VvEse
p139
sI130
VxUrI
p140
sI131
VPira
p141
sI132
VkRewra
p142
sI133
VkarawA
p143
sI134
VmOsama
p144
sI135
Vmahala
p145
sI136
VxuniyA
p146
sI137
Vbasa
p147
sI138
Vjaba
p148
sI139
VkyoMki
p149
sI140
VGUmane
p150
sI141
Vaba
p151
sI142
VbadZe
p152
sI143
Vora
p153
sI144
VsakawI
p154
sI145
VbanA
p155
sI146
VgaI
p156
sI147
Visase
p157
sI148
Vise
p158
sI149
VjAwe
p159
sI150
VhowI
p160
sI151
VjAeM
p161
sI152
VGaMte
p162
sI153
VxeKa
p163
sI154
Visalie
p164
sI155
VkaranA
p165
sI156
VkarawI
p166
sI157
VmItara
p167
sI158
VKAsa
p168
sI159
VPIsaxI
p169
sI160
VisI
p170
sI161
VkareM
p171
sI162
VxinoM
p172
sI163
Vxo
p173
sI164
Vye
p174
sI165
V\u201c
sI166
Vgae
p175
sI167
VhogA
p176
sI168
VpraxeSa
p177
sI169
VrAjasWAna
p178
sI170
VsI
p179
sI171
Vsamuxra
p180
sI172
VtUra
p181
sI173
VvAlA
p182
sI174
VjEse
p183
sI175
VlagaBaga
p184
sI176
VXyAna
p185
sI177
VmuJe
p186
sI178
VpasaMxa
p187
sI179
VsadZaka
p188
sI180
Vusa
p189
sI181
VvagEraha
p190
sI182
VBArawIya
p191
sI183
VapanA
p192
sI184
Vhama
p193
sI185
VisakI
p194
sI186
VmEM
p195
sI187
VpUrI
p196
sI188
Vunake
p197
sI189
VwaWA
p198
sI190
VBara
p199
sI191
VbawAyA
p200
sI192
VkAma
p201
sI193
VleM
p202
sI194
Vxina
p203
sI195
V(
sI196
V)
sI197
VEsI
p204
sI198
VjagahoM
p205
sI199
Vparyataka
p206
sI200
VsEra
p207
sI201
VsaPara
p208
sI202
VxeKA
p209
sI203
VgovA
p210
sI204
VmArga
p211
sI205
VnaxI
p212
sI206
VtUrista
p213
sI207
VwIna
p214
sI208
VxI
p215
sI209
V?
sI210
VEsA
p216
sI211
VbadZI
p217
sI212
VeMjOYya
p218
sI213
Vjarie
p219
sI214
VkarIba
p220
sI215
VnEnIwAla
p221
sI216
VpUre
p222
sI217
VupalabXa
p223
sI218
VvixeSI
p224
sI219
VBagavAna
p225
sI220
VOYPa
p226
sI221
VUMcAI
p227
sI222
Vbane
p228
sI223
VmajA
p229
sI224
VpahAdZiyoM
p230
sI225
VrAjya
p231
sI226
VunheM
p232
sI227
VA
sI228
VbAra
p233
sI229
Vhowe
p234
sI230
VliyA
p235
sI231
Vmana
p236
sI232
Vmila
p237
sI233
VmuMbaI
p238
sI234
VvOYtara
p239
sI235
VxUsare
p240
sI236
VxeSoM
p241
sI237
VGAtI
p242
sI238
VacCI
p243
sI239
VjEsI
p244
sI240
VmAnA
p245
sI241
VnaI
p246
sI242
VpArka
p247
sI243
Vve
p248
sI244
Vxaraasala
p249
sI245
Vxene
p250
sI246
VAI
p251
sI247
VKAne
p252
sI248
VcAhie
p253
sI249
VhimAlaya
p254
sI250
VlagawA
p255
sI251
VwEyAra
p256
sI252
VPlAita
p257
sI253
VaBI
p258
sI254
VisakA
p259
sI255
VisameM
p260
sI256
VjahAz
p261
sI257
VkyA
p262
sI258
VpahAdZI
p263
sI259
VpiCale
p264
sI260
VrAwa
p265
sI261
VsAmAna
p266
sI262
VsWala
p267
sI263
Vvakwa
p268
sI264
VxiyA
p269
sI265
V10
p270
sI266
VAja
p271
sI267
VApakI
p272
sI268
VGara
p273
sI269
VKUbasUrawI
p274
sI270
VcAheM
p275
sI271
Vcarca
p276
sI272
VhUM
p277
sI273
VjAe
p278
sI274
VjisameM
p279
sI275
Vlene
p280
sI276
VmEMne
p281
sI277
VpUrA
p282
sI278
VprasixXa
p283
sI279
Vwata
p284
sI280
VKUba
p285
sI281
VSOYpiMga
p286
sI282
VSaharoM
p287
sI283
VSurU
p288
sI284
VUpara
p289
sI285
VanuBava
p290
sI286
VbarPa
p291
sI287
Vkerala
p292
sI288
VkirAe
p293
sI289
VprAkqwika
p294
sI290
VrAjaXAnI
p295
sI291
VsAmane
p296
sI292
VsuviXA
p297
sI293
VCotA
p298
sI294
VcAhawe
p299
sI295
VejeMta
p300
sI296
VhotaloM
p301
sI297
VkAraNa
p302
sI298
VkaBI
p303
sI299
VmahIne
p304
sI300
VmahawvapUrNa
p305
sI301
Vuwwara
p306
sI302
VyahI
p307
sI303
V15
p308
sI304
VAwe
p309
sI305
VKAnA
p310
sI306
VbEMgalora
p311
sI307
Vhamane
p312
sI308
VkaMpanI
p313
sI309
VsarakAra
p314
sI310
VAkarRiwa
p315
sI311
VCote
p316
sI312
VSawAbxI
p317
sI313
VSimalA
p318
sI314
Vasara
p319
sI315
VbadZA
p320
sI316
VbehawarIna
p321
sI317
VeyaralAiMsa
p322
sI318
VkamI
p323
sI319
VkinAre
p324
sI320
VmEsUra
p325
sI321
VmaSahUra
p326
sI322
VskIiMga
p327
sI323
VunakI
p328
sI324
VunhoMne
p329
sI325
Vuxyoga
p330
sI326
VyamunA
p331
sI327
V:
sI328
VApakA
p332
sI329
VacCA
p333
sI330
Vanya
p334
sI331
VbOxXa
p335
sI332
Vbesta
p336
sI333
VhimAcala
p337
sI334
VjAnakArI
p338
sI335
VjarUrI
p339
sI336
VjudZI
p340
sI337
VlagA
p341
sI338
VmuKya
p342
sI339
VnIce
p343
sI340
Vnajara
p344
sI341
VpahuMcane
p345
sI342
VrahawA
p346
sI343
VsteSana
p347
sI344
VtrEvaliMga
p348
sI345
Vuna
p349
sI346
Vwaba
p350
sI347
VAnaMxa
p351
sI348
VAsAnI
p352
sI349
VBare
p353
sI350
VCotI
p354
sI351
VGane
p355
sI352
VJIla
p356
sI353
VSuruAwa
p357
sI354
VXarma
p358
sI355
Vajamera
p359
sI356
Vbajata
p360
sI357
VcAra
p361
sI358
VcIjoM
p362
sI359
Veyara
p363
sI360
VhogI
p364
sI361
VinheM
p365
sI362
ViwihAsa
p366
sI363
Vjala
p367
sI364
VkahIM
p368
sI365
VkalA
p369
sI366
Vkalcara
p370
sI367
VmuwAbika
p371
sI368
VnajArA
p372
sI369
VpahuMca
p373
sI370
VpedZoM
p374
sI371
VrAswA
p375
sI372
VraMga
p376
sI373
VsaMKyA
p377
sI374
Vsaba
p378
sI375
VsirPa
p379
sI376
VspA
p380
sI377
Vsubaha
p381
sI378
VtI
p382
sI379
VvahIM
p383
sI380
VvixeSa
p384
sI381
VxewA
p385
sI382
VxvIpa
p386
sI383
VBUleM
p387
sI384
VCuttiyAM
p388
sI385
VKAsA
p389
sI386
VKAsawOra
p390
sI387
VSAmila
p391
sI388
Vbana
p392
sI389
VbanavAyA
p393
sI390
Veyaraporta
p394
sI391
VhamAre
p395
sI392
Vinake
p396
sI393
Vjile
p397
sI394
Vleka
p398
sI395
VmaMxI
p399
sI396
VsElAniyoM
p400
sI397
VsIjana
p401
sI398
VsitI
p402
sI399
Vusake
p403
sI400
VwOra
p404
sI401
Vxewe
p405
sI402
VxqSya
p406
sI403
V30
p407
sI404
VAge
p408
sI405
VSAMwa
p409
sI406
VTIka
p410
sI407
VUMcI
p411
sI408
VanusAra
p412
sI409
VbanAyA
p413
sI410
VbukiMga
p414
sI411
Vhila
p415
sI412
Vhisse
p416
sI413
Vhokara
p417
sI414
VjaMgala
p418
sI415
VjaMgaloM
p419
sI416
VjarUrawa
p420
sI417
Vjise
p421
sI418
Vkie
p422
sI419
VkilA
p423
sI420
VmaMxiroM
p424
sI421
VpIka
p425
sI422
Vpaviwra
p426
sI423
VprAcIna
p427
sI424
Vpraswuwa
p428
sI425
VpraxAna
p429
sI426
VsaMskqwi
p430
sI427
VwIrWa
p431
sI428
VxevI
p432
sI429
VyAxa
p433
sI430
VAkarRaNa
p434
sI431
VKela
p435
sI432
VbasA
p436
sI433
Vbehawara
p437
sI434
VcAroM
p438
sI435
Vcala
p439
sI436
VeMda
p440
sI437
VgAMva
p441
sI438
VgaDZavAla
p442
sI439
VhavAI
p443
sI440
ViMdiyA
p444
sI441
ViwanA
p445
sI442
VjAeMge
p446
sI443
VjIvana
p447
sI444
VjammU
p448
sI445
VjudZA
p449
sI446
Vkenxra
p450
sI447
VlEMsadAuna
p451
sI448
Vmaxaxa
p452
sI449
VnirmANa
p453
sI450
VpahalI
p454
sI451
Vprakqwi
p455
sI452
VraKA
p456
sI453
VraKane
p457
sI454
Vraha
p458
sI455
Vrelave
p459
sI456
VromAMca
p460
sI457
Vrupae
p461
sI458
VtIpU
p462
sI459
VusI
p463
sI460
VuxyAna
p464
sI461
VvAkaI
p465
sI462
VviSva
p466
sI463
VwAja
p467
sI464
Vxe
p468
sI465
VxeKakara
p469
sI466
Vxera
p470
sI467
VyAwriyoM
p471
sI468
VAsapAsa
p472
sI469
Vhare
p473
sI470
VhissA
p474
sI471
VhoM
p475
sI472
VjAegA
p476
sI473
Vjisase
p477
sI474
Vkahawe
p478
sI475
Vkevala
p479
sI476
Vki.mI.
p480
sI477
VmAhOla
p481
sI478
VmOkA
p482
sI479
VmaMwrAlaya
p483
sI480
VmajexAra
p484
sI481
VmalayeSiyA
p485
sI482
VmelA
p486
sI483
VpEkeja
p487
sI484
VpadZa
p488
sI485
VpurAne
p489
sI486
VrAswe
p490
sI487
VsA
p491
sI488
VsWAnIya
p492
sI489
VsWaloM
p493
sI490
VtEksI
p494
sI491
VtUrijama
p495
sI492
VtUristoM
p496
sI493
Vuse
p497
sI494
VvAloM
p498
sI495
Vxilacaspa
p499
sI496
VyahAz
p500
sI497
VAe
p501
sI498
VArohaNa
p502
sI499
VBUtAna
p503
sI500
VEwihAsika
p504
sI501
VSAma
p505
sI502
VSOka
p506
sI503
VTaharane
p507
sI504
VaXika
p508
sI505
VanuRkA
p509
sI506
VbAjAra
p510
sI507
Vbacce
p511
sI508
VhAla
p512
sI509
VhavA
p513
sI510
ViswemAla
p514
sI511
VkahanA
p515
sI512
Vkarake
p516
sI513
VlAiPa
p517
sI514
VlaMbI
p518
sI515
Vlaga
p519
sI516
Vliye
p520
sI517
VmilawA
p521
sI518
VmilegI
p522
sI519
VmyUjiyama
p523
sI520
Vnae
p524
sI521
VpAMca
p525
sI522
VpadZawI
p526
sI523
VprakAra
p527
sI524
Vprawi
p528
sI525
VraKawe
p529
sI526
VromAMcaka
p530
sI527
VsAPa
p531
sI528
VsWAnoM
p532
sI529
VsaMgIwa
p533
sI530
Vsana
p534
sI531
Vsportsa
p535
sI532
VsuMxara
p536
sI533
VsurakRiwa
p537
sI534
VtOYpa
p538
sI535
Vtrena
p539
sI536
Vtripa
p540
sI537
VuwkqRta
p541
sI538
VwakarIbana
p542
sI539
VwaraPa
p543
sI540
Vxa
p544
sI541
VxonoM
p545
sI542
VyUropa
p546
sI543
V5
sI544
VBIdZa
p547
sI545
VGirA
p548
sI546
VKuxa
p549
sI547
VSAnaxAra
p550
sI548
VSElI
p551
sI549
VTaMda
p552
sI550
VWodZI
p553
sI551
VaktUbara
p554
sI552
VbAhara
p555
sI553
VbAwoM
p556
sI554
VbritiSa
p557
sI555
VbuxXa
p558
sI556
Vcalane
p559
sI557
Vcalawe
p560
sI558
VdestineSana
p561
sI559
VgaMgA
p562
sI560
Vgrupa
p563
sI561
VhajAra
p564
sI562
Vkamare
p565
sI563
VkiMgaPiSara
p566
sI564
Vkile
p567
sI565
VlagawI
p568
sI566
Vlage
p569
sI567
Vlokapriya
p570
sI568
VmasAja
p571
sI569
VmaswI
p572
sI570
VpadZawA
p573
sI571
VpadZegA
p574
sI572
VpahAdZa
p575
sI573
VpahAdZoM
p576
sI574
VpawA
p577
sI575
Vpikanika
p578
sI576
VraKanA
p579
sI577
Vrahawe
p580
sI578
Vrela
p581
sI579
Vrupaye
p582
sI580
Vtikata
p583
sI581
VviBinna
p584
sI582
VviSAla
p585
sI583
VwavAMga
p586
sI584
Vwaya
p587
sI585
VxakRiNa
p588
sI586
VxeKawe
p589
sI587
VyAnI
p590
sI588
V25
p591
sI589
V50
p592
sI590
VBavya
p593
sI591
VGarelU
p594
sI592
VKarca
p595
sI593
VSiKara
p596
sI594
Vaksara
p597
sI595
VbETakara
p598
sI596
VbanAne
p599
sI597
VbanI
p600
sI598
Vbilkula
p601
sI599
VbinA
p602
sI600
VcIjeM
p603
sI601
VdOYktara
p604
sI602
Ve
sI603
VgirAvata
p605
sI604
VhAWa
p606
sI605
VhameSA
p607
sI606
VhonA
p608
sI607
ViwanI
p609
sI608
VjUna
p610
sI609
Vjayapura
p611
sI610
VjinameM
p612
sI611
VkamISana
p613
sI612
VlakRaxvIpa
p614
sI613
Vmasalana
p615
sI614
VnA
p616
sI615
Vnagara
p617
sI616
VpaScimI
p618
sI617
VpravakwA
p619
sI618
VpuNe
p620
sI619
VrahegA
p621
sI620
VsUraja
p622
sI621
VsahI
p623
sI622
VsamqxXa
p624
sI623
VsevA
p625
sI624
VsulwAna
p626
sI625
VsurakRA
p627
sI626
VtrekiMga
p628
sI627
VunakA
p629
sI628
Vuwsava
p630
sI629
VwAjamahala
p631
sI630
Vwahawa
p632
sI631
VxeKeM
p633
sI632
VxewI
p634
sI633
Vxie
p635
sI634
VyahIM
p636
sI635
V12
p637
sI636
V2
sI637
VAsa
p638
sI638
VAwI
p639
sI639
VAwaMkI
p640
sI640
VBarI
p641
sI641
VCuttiyoM
p642
sI642
VKAsI
p643
sI643
VSo
p644
sI644
VSrIlaMkA
p645
sI645
VXanOltI
p646
sI646
VaMxara
p647
sI647
VacCe
p648
sI648
Vagale
p649
sI649
VbAGa
p650
sI650
VbAika
p651
sI651
VbEga
p652
sI652
VbIkAnera
p653
sI653
VbaDZiyA
p654
sI654
VbaccoM
p655
sI655
Vbalki
p656
sI656
VbeSaka
p657
sI657
Vbegama
p658
sI658
Vbota
p659
sI659
VdAiviMga
p660
sI660
VdOYlara
p661
sI661
VdrAiviMga
p662
sI662
Vesa
p663
sI663
Vgarma
p664
sI664
VhAusa
p665
sI665
VhamaloM
p666
sI666
VhameM
p667
sI667
VilAhAbAxa
p668
sI668
VimArawa
p669
sI669
VjAnane
p670
sI670
VjI
p671
sI671
VjagaheM
p672
sI672
Vjisake
p673
sI673
VkAla
p674
sI674
VkapadZe
p675
sI675
VkaranI
p676
sI676
VkatOwI
p677
sI677
VkqRNa
p678
sI678
VkumAyUz
p679
sI679
VlAyaka
p680
sI680
VmAmale
p681
sI681
VmaWurA
p682
sI682
VmanAne
p683
sI683
VnajAre
p684
sI684
Vnikala
p685
sI685
VpElesa
p686
sI686
VpedZa
p687
sI687
VpramuKa
p688
sI688
VpraveSa
p689
sI689
VpurAnA
p690
sI690
VrARtrIya
p691
sI691
VrAma
p692
sI692
VraheM
p693
sI693
VsAloM
p694
sI694
VsIta
p695
sI695
VsWApiwa
p696
sI696
VsWiwi
p697
sI697
VsaMgama
p698
sI698
VsaMwa
p699
sI699
Vsake
p700
sI700
VsarakArI
p701
sI701
Vsarvowwama
p702
sI702
VseMtara
p703
sI703
VsuMxarawA
p704
sI704
Vswara
p705
sI705
VtUrijma
p706
sI706
VuTA
p707
sI707
VvarRa
p708
sI708
VwAki
p709
sI709
Vwala
p710
sI710
VwibbawI
p711
sI711
VxUsarI
p712
sI712
VxarSana
p713
sI713
VxeKanA
p714
sI714
VxeM
p715
sI715
VxiKAI
p716
sI716
VyojanA
p717
sI717
V20
p718
sI718
V40
p719
sI719
VAkara
p720
sI720
VAra
p721
sI721
VAyaralEMda
p722
sI722
VBale
p723
sI723
VKadZI
p724
sI724
VKarAba
p725
sI725
VKawma
p726
sI726
VKoja
p727
sI727
VPEle
p728
sI728
VPUda
p729
sI729
VPuta
p730
sI730
VSAyaxa
p731
sI731
VSarIra
p732
sI732
VUMta
p733
sI733
VUMtoM
p734
sI734
VWAIlEMda
p735
sI735
VXArmika
p736
sI736
VaPrIkA
p737
sI737
VahasAsa
p738
sI738
VajaMwA
p739
sI739
VamerikA
p740
sI740
VasalI
p741
sI741
Vavasara
p742
sI742
VbOYdI
p743
sI743
VbaDZa
p744
sI744
VbaMxa
p745
sI745
Vbacane
p746
sI746
VbanAe
p747
sI747
Vbaxala
p748
sI748
VcAya
p749
sI749
VcUMki
p750
sI750
Vcewana
p751
sI751
VcukA
p752
sI752
Vcuke
p753
sI753
VeSiyA
p754
sI754
Vena
p755
sI755
VjAhira
p756
sI756
VjAnawe
p757
sI757
VjalavAyu
p758
sI758
VjalxI
p759
sI759
VkAra
p760
sI760
VkaMpaniyAM
p761
sI761
VkaMpaniyoM
p762
sI762
VkaravAyA
p763
sI763
VkimI
p764
sI764
VlI
p765
sI765
Vlona
p766
sI766
VmArca
p767
sI767
VmaXya
p768
sI768
VmahilA
p769
sI769
VmanAlI
p770
sI770
VmarusWala
p771
sI771
Vmawalaba
p772
sI772
Vmere
p773
sI773
Vmijorama
p774
sI774
VmuhEyA
p775
sI775
VnavaMbara
p776
sI776
Vnecara
p777
sI777
VnukasAna
p778
sI778
VpAe
p779
sI779
VpAeMge
p780
sI780
VpAra
p781
sI781
VpOYpulara
p782
sI782
VpUrva
p783
sI783
VpahalA
p784
sI784
VpakRI
p785
sI785
Vpala
p786
sI786
VpareSAna
p787
sI787
VplAna
p788
sI788
Vprayoga
p789
sI789
VpuxuccerI
p790
sI790
VrAjyoM
p791
sI791
VsArI
p792
sI792
VsImA
p793
sI793
VsWApawya
p794
sI794
VsaMsAra
p795
sI795
VsamAna
p796
sI796
Vsarvisa
p797
sI797
VsarxiyoM
p798
sI798
VsiMha
p799
sI799
Vsistama
p800
sI800
VtEksa
p801
sI801
VvAwAvaraNa
p802
sI802
VvOYka
p803
sI803
Vvana
p804
sI804
Vvarlda
p805
sI805
VvikAsa
p806
sI806
Vvikasiwa
p807
sI807
Vvyakwi
p808
sI808
VvyavasWA
p809
sI809
VwApamAna
p810
sI810
Vweja
p811
sI811
V000
p812
sI812
V4
sI813
V6
sI814
V60
p813
sI815
VAXAra
p814
sI816
VAkarRaka
p815
sI817
VAma
p816
sI818
VArta
p817
sI819
VAvAsa
p818
sI820
VBAga
p819
sI821
VJIloM
p820
sI822
VJalaka
p821
sI823
VOYpSana
p822
sI824
VPEsalA
p823
sI825
VPIta
p824
sI826
VParavarI
p825
sI827
VPestivala
p826
sI828
VPilahAla
p827
sI829
VSAMwi
p828
sI830
VSrI
p829
sI831
VUMce
p830
sI832
VWIM
p831
sI833
VWodZA
p832
sI834
VXIre
p833
sI835
Vakele
p834
sI836
VaprEla
p835
sI837
VawyaMwa
p836
sI838
VbAkI
p837
sI839
Vbase
p838
sI840
VbawAwI
p839
sI841
VbawAwe
p840
sI842
VbiwAne
p841
sI843
Vborda
p842
sI844
Vbuka
p843
sI845
VcIna
p844
sI846
VcaleM
p845
sI847
VdrAiva
p846
sI848
VePa
p847
sI849
VejeMsI
p848
sI850
VekadZa
p849
sI851
Vema
p850
sI852
Vgqha
p851
sI853
VguPA
p852
sI854
VhamArA
p853
sI855
ViMSyoreMsa
p854
sI856
ViMdastrI
p855
sI857
VjAkara
p856
sI858
VjArI
p857
sI859
VjiMxagI
p858
sI860
VjudZe
p859
sI861
VkOYrbeta
p860
sI862
VkRewroM
p861
sI863
VkaSmIra
p862
sI864
VkahAM
p863
sI865
VkamaroM
p864
sI866
VkarA
p865
sI867
VkareMge
p866
sI868
Vkaxama
p867
sI869
VkoSiSa
p868
sI870
Vkone
p869
sI871
Vkula
p870
sI872
VlAKa
p871
sI873
VlAla
p872
sI874
Vlewe
p873
sI875
VlhAsA
p874
sI876
Vluka
p875
sI877
VmAMga
p876
sI878
VmExAna
p877
sI879
VmOjUxa
p878
sI880
VmaI
p879
sI881
VmahasUsa
p880
sI882
VmerI
p881
sI883
VmilawI
p882
sI884
VmileMge
p883
sI885
Vminata
p884
sI886
VmukAbale
p885
sI887
VnajaxIkI
p886
sI888
VnajaxIka
p887
sI889
VnaxiyoM
p888
sI890
VpIne
p889
sI891
VpUrvI
p890
sI892
VpaDZane
p891
sI893
VpadZA
p892
sI894
VpakRiyoM
p893
sI895
VpeSa
p894
sI896
Vporta
p895
sI897
Vprojekta
p896
sI898
VrAjA
p897
sI899
VrAja
p898
sI900
VrAmAyaNa
p899
sI901
VrUma
p900
sI902
Vrahane
p901
sI903
VrahawI
p902
sI904
VrikSA
p903
sI905
VsAhasika
p904
sI906
VsAwa
p905
sI907
VsIXI
p906
sI908
VsakeM
p907
sI909
Vsilasile
p908
sI910
VsiwaMbara
p909
sI911
VspeSala
p910
sI912
VsukUna
p911
sI913
VsvawaMwrawA
p912
sI914
VtAvara
p913
sI915
VtrAMsaporta
p914
sI916
VudZAna
p915
sI917
Vumra
p916
sI918
VusakI
p917
sI919
VuwsAha
p918
sI920
Vuwwama
p919
sI921
VvI
p920
sI922
VvyApAra
p921
sI923
VwalASa
p922
sI924
Vwibbawa
p923
sI925
Vxasa
p924
sI926
VxeKe
p925
sI927
VxurlaBa
p926
sI928
V1
sI929
V13
p927
sI930
V14
p928
sI931
V7
sI932
VAKira
p929
sI933
VAXunika
p930
sI934
VArAma
p931
sI935
VAsAna
p932
sI936
VBArI
p933
sI937
VBUmi
p934
sI938
VBarapUra
p935
sI939
VBramaNa
p936
sI940
VCawa
p937
sI941
VIko
p938
sI942
VKarIxa
p939
sI943
VKule
p940
sI944
VKvAjA
p941
sI945
VOYPara
p942
sI946
VOYPisa
p943
sI947
VOYto
p944
sI948
VPOYlsa
p945
sI949
VPirane
p946
sI950
VSilOYnga
p947
sI951
VSiva
p948
sI952
VUzta
p949
sI953
VWOYmasa
p950
sI954
VWakAna
p951
sI955
VXUpa
p952
sI956
VXamAkoM
p953
sI957
VaMgrejoM
p954
sI958
VaXikawara
p955
sI959
ValmodZA
p956
sI960
VbAMXa
p957
sI961
VbETane
p958
sI962
VbaMgAla
p959
sI963
Vbaje
p960
sI964
VbiwAyA
p961
sI965
Vbleyara
p962
sI966
VcAhe
p963
sI967
VcIdZa
p964
sI968
VcOkodZI
p965
sI969
VcaDZAI
p966
sI970
Vcakkara
p967
sI971
VcalawI
p968
sI972
VgAdZI
p969
sI973
VgArdana
p970
sI974
VgarmI
p971
sI975
Vgaye
p972
sI976
VgrAmINa
p973
sI977
Vgujarawe
p974
sI978
Vgulamarga
p975
sI979
VhExarAbAxa
p976
sI980
Vhalke
p977
sI981
Vhamale
p978
sI982
VhampI
p979
sI983
ViMgliSa
p980
sI984
ViMtaranESanala
p981
sI985
ViMwajAma
p982
sI986
VilAke
p983
sI987
VinameM
p984
sI988
Viwane
p985
sI989
VjanavarI
p986
sI990
Vjeta
p987
sI991
VkArobAra
p988
sI992
VkasIno
p989
sI993
VkeMxra
p990
sI994
VklAsa
p991
sI995
VkuSInagara
p992
sI996
VlaMkAvI
p993
sI997
VlaMxana
p994
sI998
VlagjarI
p995
sI999
VlakadZI
p996
sI1000
VlaxxAKa
p997
sI1001
Vlokala
p998
sI1002
VluBAne
p999
sI1003
VluwPa
p1000
sI1004
VmAwA
p1001
sI1005
VmExAnoM
p1002
sI1006
VmOYdala
p1003
sI1007
VmUla
p1004
sI1008
VmahAna
p1005
sI1009
Vmahaja
p1006
sI1010
VmasUrI
p1007
sI1011
VmilegA
p1008
sI1012
VmuSkila
p1009
sI1013
Vmugala
p1010
sI1014
VnESanala
p1011
sI1015
VnOkAyana
p1012
sI1016
VnepAla
p1013
sI1017
Vnirmiwa
p1014
sI1018
Vo
sI1019
VpAsaporta
p1015
sI1020
VpAyala
p1016
sI1021
VpEsA
p1017
sI1022
VpICe
p1018
sI1023
VpaScima
p1019
sI1024
Vparvawa
p1020
sI1025
VpasaMxIxA
p1021
sI1026
VpawWara
p1022
sI1027
Vplesa
p1023
sI1028
VprApwa
p1024
sI1029
VprajAwiyoM
p1025
sI1030
Vpulisa
p1026
sI1031
VpurAnI
p1027
sI1032
VrIgA
p1028
sI1033
VraMgIna
p1029
sI1034
VrewIle
p1030
sI1035
VrisOYrta
p1031
sI1036
VsAranAWa
p1032
sI1037
VsadZakoM
p1033
sI1038
VsalAha
p1034
sI1039
VsamuxrI
p1035
sI1040
VsaraXanA
p1036
sI1041
VsaxI
p1037
sI1042
VsuviXAeM
p1038
sI1043
Vtesta
p1039
sI1044
Vtreka
p1040
sI1045
VtuarijZama
p1041
sI1046
VummIxa
p1042
sI1047
VuwwarAMcala
p1043
sI1048
VuxAharaNa
p1044
sI1049
VvAilda
p1045
sI1050
Vvikalpa
p1046
sI1051
VvimAna
p1047
sI1052
VwAla
p1048
sI1053
VwasvIra
p1049
sI1054
VwejI
p1050
sI1055
VxIva
p1051
sI1056
Vxara
p1052
sI1057
VxaragAha
p1053
sI1058
VxeKI
p1054
sI1059
VxilacaspI
p1055
sI1060
VxoswoM
p1056
sI1061
VxukAnoM
p1057
sI1062
VxuniyABara
p1058
sI1063
VyAxagAra
p1059
sI1064
V!
sI1065
V18
p1060
sI1066
VAMKoM
p1061
sI1067
VAmawOra
p1062
sI1068
VAnA
p1063
sI1069
VAnanxa
p1064
sI1070
VAsamAna
p1065
sI1071
VAwA
p1066
sI1072
VAyA
p1067
sI1073
VBarA
p1068
sI1074
VBarawapura
p1069
sI1075
VCaha
p1070
sI1076
VCora
p1071
sI1077
VGaMtA
p1072
sI1078
VKAdZI
p1073
sI1079
VKadZe
p1074
sI1080
VKajurAho
p1075
sI1081
VOYna
p1076
sI1082
VOYstreliyA
p1077
sI1083
VPAyaxA
p1078
sI1084
VPElI
p1079
sI1085
VPOYrena
p1080
sI1086
VSulka
p1081
sI1087
VSuruAwI
p1082
sI1088
VUzcAI
p1083
sI1089
VWAra
p1084
sI1090
VWerapI
p1085
sI1091
VaMdamAna
p1086
sI1092
VaMwararARtrIya
p1087
sI1093
VaMxAjA
p1088
sI1094
VadaveMcara
p1089
sI1095
Vaneka
p1090
sI1096
Vanumawi
p1091
sI1097
VayoXyA
p1092
sI1098
VbAga
p1093
sI1099
VbAvajUxa
p1094
sI1100
VbETe
p1095
sI1101
VbI
p1096
sI1102
VbOYrdara
p1097
sI1103
VbaDZawI
p1098
sI1104
VbaceM
p1099
sI1105
Vbanane
p1100
sI1106
VbiraMge
p1101
sI1107
VcAha
p1102
sI1108
VcIja
p1103
sI1109
VcalawA
p1104
sI1110
Vdabalina
p1105
sI1111
VdalahOjI
p1106
sI1112
VdiskAuMta
p1107
sI1113
VeriyA
p1108
sI1114
VeyaralAina
p1109
sI1115
VhAWoM
p1110
sI1116
VhOYla
p1111
sI1117
VharI
p1112
sI1118
VhinxU
p1113
sI1119
VhisAba
p1114
sI1120
VhissoM
p1115
sI1121
ViMdiyana
p1116
sI1122
Vinase
p1117
sI1123
VitEliyana
p1118
sI1124
VitalI
p1119
sI1125
VjAnI
p1120
sI1126
VjAnavara
p1121
sI1127
VjEsalamera
p1122
sI1128
VjUlarI
p1123
sI1129
Vjabarxaswa
p1124
sI1130
Vjanma
p1125
sI1131
VjilA
p1126
sI1132
VjinheM
p1127
sI1133
Vjisa
p1128
sI1134
VjyAxAwara
p1129
sI1135
VkIjie
p1130
sI1136
VkOYtana
p1131
sI1137
VkamAI
p1132
sI1138
VkapadZoM
p1133
sI1139
Vkapalsa
p1134
sI1140
VkarAne
p1135
sI1141
VkarAyA
p1136
sI1142
VkarodZa
p1137
sI1143
VkiwanA
p1138
sI1144
Vkrisamasa
p1139
sI1145
VlaMbe
p1140
sI1146
VlagI
p1141
sI1147
Vlagawe
p1142
sI1148
VluBAwA
p1143
sI1149
VmAXyama
p1144
sI1150
VmUrwi
p1145
sI1151
VmahArAjA
p1146
sI1152
VmahilAeM
p1147
sI1153
VmanAyA
p1148
sI1154
Vmanorama
p1149
sI1155
Vmela
p1150
sI1156
VmilA
p1151
sI1157
Vmilane
p1152
sI1158
Vmirika
p1153
sI1159
VmyUjika
p1154
sI1160
VnajAroM
p1155
sI1161
VnayA
p1156
sI1162
VnikalawI
p1157
sI1163
VpAI
p1158
sI1164
VpAne
p1159
sI1165
VpEkiMga
p1160
sI1166
VpI
p1161
sI1167
VpahuMcA
p1162
sI1168
VpahuMce
p1163
sI1169
VparaPekta
p1164
sI1170
VpatanI
p1165
sI1171
VpawWaroM
p1166
sI1172
VpraBAvaSAlI
p1167
sI1173
Vprawyeka
p1168
sI1174
VpreSara
p1169
sI1175
VpreraNA
p1170
sI1176
Vqwu
p1171
sI1177
VrAjasI
p1172
sI1178
VrAswoM
p1173
sI1179
VrUta
p1174
sI1180
Vraxxa
p1175
sI1181
VregiswAna
p1176
sI1182
VreswarAM
p1177
sI1183
VrijOYrta
p1178
sI1184
Vroja
p1179
sI1185
VruKa
p1180
sI1186
Vrupa
p1181
sI1187
VsIniyara
p1182
sI1188
VsIwA
p1183
sI1189
VsOMxarya
p1184
sI1190
VsWApanA
p1185
sI1191
VsaMrakRaNa
p1186
sI1192
VsaPZArI
p1187
sI1193
Vsahana
p1188
sI1194
VsamUha
p1189
sI1195
VseMta
p1190
sI1196
VskIma
p1191
sI1197
VskUbA
p1192
sI1198
VsmAraka
p1193
sI1199
Vsone
p1194
sI1200
VspOYta
p1195
sI1201
VsvacCa
p1196
sI1202
VtAima
p1197
sI1203
VtiPina
p1198
sI1204
VtrEka
p1199
sI1205
VusakA
p1200
sI1206
VvArRika
p1201
sI1207
VvErAitI
p1202
sI1208
VvIM
p1203
sI1209
VviBAga
p1204
sI1210
VviSiRta
p1205
sI1211
VvihAra
p1206
sI1212
VvismayakArI
p1207
sI1213
VwarIkA
p1208
sI1214
VwulanA
p1209
sI1215
VxUsarA
p1210
sI1216
VxabAva
p1211
sI1217
VxeMge
p1212
sI1218
VxenA
p1213
sI1219
VxisaMbara
p1214
sI1220
VxogunA
p1215
sI1221
VyaMwra
p1216
sI1222
VyakIna
p1217
sI1223
Vyaxi
p1218
sI1224
V16
p1219
sI1225
V200
p1220
sI1226
V24
p1221
sI1227
V27
p1222
sI1228
V500
p1223
sI1229
V55
p1224
sI1230
VAXA
p1225
sI1231
VAkASa
p1226
sI1232
VArakRiwa
p1227
sI1233
VAvaSyaka
p1228
sI1234
VAxi
p1229
sI1235
VAyojana
p1230
sI1236
VAyojiwa
p1231
sI1237
VGAtoM
p1232
sI1238
VI
sI1239
VIsta
p1233
sI1240
VOYpSaMsa
p1234
sI1241
VPEmilI
p1235
sI1242
VPOYresta
p1236
sI1243
VPana
p1237
sI1244
VPona
p1238
sI1245
VPrAMsa
p1239
sI1246
VSOkIna
p1240
sI1247
VSiKaroM
p1241
sI1248
VUMcA
p1242
sI1249
VUzcI
p1243
sI1250
VWIma
p1244
sI1251
VXarawI
p1245
sI1252
VXarmaSAlA
p1246
sI1253
VaMxarUnI
p1247
sI1254
VagalI
p1248
sI1255
Vagaswa
p1249
sI1256
VahamaxAbAxa
p1250
sI1257
Vakabara
p1251
sI1258
ValI
p1252
sI1259
VanumAna
p1253
sI1260
Varaba
p1254
sI1261
VbAriSa
p1255
sI1262
VbahumUlya
p1256
sI1263
VbajAya
p1257
sI1264
VbanAeM
p1258
sI1265
VbanAwe
p1259
sI1266
Vbarda
p1260
sI1267
VbaxalAva
p1261
sI1268
VbikrI
p1262
sI1269
VbiwA
p1263
sI1270
Vbreka
p1264
sI1271
Vbrija
p1265
sI1272
VcAheMge
p1266
sI1273
Vceka
p1267
sI1274
VciSwI
p1268
sI1275
VdOYlPina
p1269
sI1276
VedaveMcara
p1270
sI1277
VgAida
p1271
sI1278
VginA
p1272
sI1279
VglAidiMga
p1273
sI1280
VgrAhakoM
p1274
sI1281
VgrIRma
p1275
sI1282
Vgujara
p1276
sI1283
VhAI
p1277
sI1284
VhAM
p1278
sI1285
VhAive
p1279
sI1286
VhAlAzki
p1280
sI1287
VhExara
p1281
sI1288
VhOYlide
p1282
sI1289
VhaPwe
p1283
sI1290
VhanImUna
p1284
sI1291
VhariyAlI
p1285
sI1292
Vhilsa
p1286
sI1293
VhoMge
p1287
sI1294
ViMwajAra
p1288
sI1295
VimAraweM
p1289
sI1296
VjAxU
p1290
sI1297
VjEna
p1291
sI1298
VjEsA
p1292
sI1299
VjUsa
p1293
sI1300
Vjabaki
p1294
sI1301
VjetiMga
p1295
sI1302
Vjinake
p1296
sI1303
VjisakA
p1297
sI1304
VkEMpiMga
p1298
sI1305
VkEse
p1299
sI1306
VkOYmpleksa
p1300
sI1307
VkOYsmetiksa
p1301
sI1308
VkaMsarta
p1302
sI1309
Vkaba
p1303
sI1310
VkahAniyAM
p1304
sI1311
VkahawI
p1305
sI1312
VkalpanA
p1306
sI1313
VkarAwe
p1307
sI1314
VkaravA
p1308
sI1315
VkaregA
p1309
sI1316
VkiraNeM
p1310
sI1317
Vkisa
p1311
sI1318
VkiwanI
p1312
sI1319
Vkorala
p1313
sI1320
VkujIna
p1314
sI1321
VkumAUM
p1315
sI1322
Vkuxarawa
p1316
sI1323
VkyoM
p1317
sI1324
VlA
p1318
sI1325
VladZAI
p1319
sI1326
VlagAwAra
p1320
sI1327
Vlagane
p1321
sI1328
VlagegA
p1322
sI1329
Vlevala
p1323
sI1330
VlihAjA
p1324
sI1331
VluMbinI
p1325
sI1332
VmAmaloM
p1326
sI1333
VmAnanA
p1327
sI1334
VmAne
p1328
sI1335
VmAnie
p1329
sI1336
VmAra
p1330
sI1337
VmArgoM
p1331
sI1338
VmaMdala
p1332
sI1339
VmaMdapa
p1333
sI1340
VmaMwrI
p1334
sI1341
VmahAwmA
p1335
sI1342
VmahInoM
p1336
sI1343
Vmahawva
p1337
sI1344
VmarIna
p1338
sI1345
VmehamAnoM
p1339
sI1346
VmileMgI
p1340
sI1347
Vmohaka
p1341
sI1348
VmugaloM
p1342
sI1349
VmulAkAwa
p1343
sI1350
VmumbaI
p1344
sI1351
VnAga
p1345
sI1352
VnIle
p1346
sI1353
VnaMbara
p1347
sI1354
VnakSe
p1348
sI1355
Vnikata
p1349
sI1356
VnikobAra
p1350
sI1357
VnirBara
p1351
sI1358
VnivAsa
p1352
sI1359
VpAlana
p1353
sI1360
VpAyA
p1354
sI1361
VpEkejeja
p1355
sI1362
VpErAglAidiMga
p1356
sI1363
VpExala
p1357
sI1364
VpOXe
p1358
sI1365
VpOYiMta
p1359
sI1366
VpOrANika
p1360
sI1367
VpUCA
p1361
sI1368
VpadZawe
p1362
sI1369
VpahAdZiyAM
p1363
sI1370
Vpahala
p1364
sI1371
VpahaneM
p1365
sI1372
VpaloM
p1366
sI1373
VparaseMta
p1367
sI1374
VpraBAviwa
p1368
sI1375
VpraswAva
p1369
sI1376
VprawIka
p1370
sI1377
VpraxarSiwa
p1371
sI1378
Vpriya
p1372
sI1379
VpuRkara
p1373
sI1380
VpurANa
p1374
sI1381
VrAPtiMga
p1375
sI1382
VrAhawa
p1376
sI1383
VraKa
p1377
sI1384
VraKawI
p1378
sI1385
Vrahana
p1379
sI1386
Vreda
p1380
sI1387
VrestoreMta
p1381
sI1388
VroSanI
p1382
sI1389
Vrocaka
p1383
sI1390
VsADZe
p1384
sI1391
VsAMskqwika
p1385
sI1392
VsAXana
p1386
sI1393
VsAgara
p1387
sI1394
VsAuWa
p1388
sI1395
VsElAnI
p1389
sI1396
VsIXe
p1390
sI1397
VsO
p1391
sI1398
VsaMgamaramara
p1392
sI1399
VsaMparka
p1393
sI1400
VsakeMge
p1394
sI1401
VsamaJa
p1395
sI1402
Vsamarpiwa
p1396
sI1403
Vsamawala
p1397
sI1404
Vsammiliwa
p1398
sI1405
VsampUrNa
p1399
sI1406
VsarvAXika
p1400
sI1407
VsenA
p1401
sI1408
Vseta
p1402
sI1409
VskUla
p1403
sI1410
VsuhAvanA
p1404
sI1411
VsunA
p1405
sI1412
VsuniSciwa
p1406
sI1413
VtAMgoM
p1407
sI1414
VtEMka
p1408
sI1415
VtrEkiMga
p1409
sI1416
VulleKanIya
p1410
sI1417
Vunako
p1411
sI1418
VunameM
p1412
sI1419
Vusase
p1413
sI1420
VvApasa
p1414
sI1421
VvAxiyoM
p1415
sI1422
VvIikala
p1416
sI1423
VvIjA
p1417
sI1424
VvIkaeMda
p1418
sI1425
Vvanya
p1419
sI1426
VvarwamAna
p1420
sI1427
VviMda
p1421
sI1428
VviSeRa
p1422
sI1429
VviSrAma
p1423
sI1430
VviSvAsa
p1424
sI1431
VvimAnana
p1425
sI1432
VvqkRoM
p1426
sI1433
VwIrWasWAna
p1427
sI1434
VwaBI
p1428
sI1435
VwyohAra
p1429
sI1436
VxAma
p1430
sI1437
VxIvAroM
p1431
sI1438
VxarSanIya
p1432
sI1439
VxiKawA
p1433
sI1440
VxiSA
p1434
sI1441
Vxila
p1435
sI1442
VxqRti
p1436
sI1443
VxvAra
p1437
sI1444
VxvIpoM
p1438
sI1445
V3
sI1446
V35
p1439
sI1447
V400
p1440
sI1448
V70
p1441
sI1449
VAIlEMda
p1442
sI1450
VAbAxI
p1443
sI1451
VAbAxa
p1444
sI1452
VAbU
p1445
sI1453
VAeM
p1446
sI1454
VAgarA
p1447
sI1455
VAilEMda
p1448
sI1456
VAiriSa
p1449
sI1457
VAjAxI
p1450
sI1458
VAjakala
p1451
sI1459
VAkaRirwa
p1452
sI1460
VApane
p1453
sI1461
VArWika
p1454
sI1462
VAwaMkavAxI
p1455
sI1463
VAwmA
p1456
sI1464
VAya
p1457
sI1465
VBArawIyoM
p1458
sI1466
VBIwara
p1459
sI1467
VBOgolika
p1460
sI1468
VBU
p1461
sI1469
VBUla
p1462
sI1470
VBavana
p1463
sI1471
VDake
p1464
sI1472
VGAta
p1465
sI1473
VGUma
p1466
sI1474
VGaMtoM
p1467
sI1475
VItI
p1468
sI1476
VJIleM
p1469
sI1477
VJarane
p1470
sI1478
VKAsakara
p1471
sI1479
VKAse
p1472
sI1480
VKarIxane
p1473
sI1481
VKawarA
p1474
sI1482
VKewI
p1475
sI1483
VKuSabU
p1476
sI1484
VKulA
p1477
sI1485
VKyAla
p1478
sI1486
VPAiva
p1479
sI1487
VPArma
p1480
sI1488
VPElA
p1481
sI1489
VPIlda
p1482
sI1490
VPOYla
p1483
sI1491
VPUla
p1484
sI1492
VPlAitsa
p1485
sI1493
VPlora
p1486
sI1494
VPula
p1487
sI1495
VSOYpa
p1488
sI1496
VSikAra
p1489
sI1497
VSipa
p1490
sI1498
VSora
p1491
sI1499
VSreNI
p1492
sI1500
VSreRTa
p1493
sI1501
VTaMdI
p1494
sI1502
VUzcA
p1495
sI1503
VUzce
p1496
sI1504
VWerapista
p1497
sI1505
VWodZe
p1498
sI1506
VXErya
p1499
sI1507
VXuMXa
p1500
sI1508
VaBayAraNya
p1501
sI1509
VaMwima
p1502
sI1510
VaMxAja
p1503
sI1511
VacAnaka
p1504
sI1512
VaddA
p1505
sI1513
VanxamAna
p1506
sI1514
VapekRAkqwa
p1507
sI1515
VaromAWerapI
p1508
sI1516
VaruNAcala
p1509
sI1517
VavaXi
p1510
sI1518
Vawi
p1511
sI1519
Vawirikwa
p1512
sI1520
VawyaXika
p1513
sI1521
VbAMglAxeSa
p1514
sI1522
VbAgAnoM
p1515
sI1523
VbAwacIwa
p1516
sI1524
VbAweM
p1517
sI1525
VbAzXa
p1518
sI1526
VbEMkOYka
p1519
sI1527
VbIceja
p1520
sI1528
VbIwe
p1521
sI1529
VbaDZAne
p1522
sI1530
VbaccA
p1523
sI1531
VbarAbara
p1524
sI1532
VbawAeM
p1525
sI1533
VbawOra
p1526
sI1534
Vbaxale
p1527
sI1535
VbemisAla
p1528
sI1536
VbiMxI
p1529
sI1537
Vbijanesa
p1530
sI1538
VbilAsapura
p1531
sI1539
Vblada
p1532
sI1540
VboXagayA
p1533
sI1541
VbrAjIla
p1534
sI1542
VbuXxa
p1535
sI1543
VbyUtI
p1536
sI1544
VcAmbA
p1537
sI1545
VcAvala
p1538
sI1546
VcalA
p1539
sI1547
VcattAna
p1540
sI1548
VceharA
p1541
sI1549
VcennE
p1542
sI1550
VciwroM
p1543
sI1551
VcotI
p1544
sI1552
VcukI
p1545
sI1553
VdAMsa
p1546
sI1554
VdI
p1547
sI1555
Vdara
p1548
sI1556
VdeDZa
p1549
sI1557
VdestineSaMsa
p1550
sI1558
VdijAina
p1551
sI1559
VeWanika
p1552
sI1560
Veca
p1553
sI1561
VejeMtoM
p1554
sI1562
VekamAwra
p1555
sI1563
Vela
p1556
sI1564
VesosieSana
p1557
sI1565
Veyaraveja
p1558
sI1566
VgAMXI
p1559
sI1567
VgOrawalaba
p1560
sI1568
VgaIM
p1561
sI1569
VgaMBIra
p1562
sI1570
VgarmiyoM
p1563
sI1571
Vgema
p1564
sI1572
Vglobala
p1565
sI1573
VgolPa
p1566
sI1574
VguPAoM
p1567
sI1575
VgulAbI
p1568
sI1576
Vguru
p1569
sI1577
VhEMda
p1570
sI1578
VhErAnI
p1571
sI1579
VhajAroM
p1572
sI1580
VhamArI
p1573
sI1581
VhanumAna
p1574
sI1582
VhareBare
p1575
sI1583
Vhotalsa
p1576
sI1584
ViMglEMda
p1577
sI1585
VijAPA
p1578
sI1586
VilAkoM
p1579
sI1587
VinakAra
p1580
sI1588
VinakI
p1581
sI1589
VjAKU
p1582
sI1590
VjAegI
p1583
sI1591
VjAwi
p1584
sI1592
VjFAna
p1585
sI1593
VjIvaMwa
p1586
sI1594
VjIwa
p1587
sI1595
VjaMgalI
p1588
sI1596
VjamI
p1589
sI1597
Vjamakara
p1590
sI1598
VjarA
p1591
sI1599
Vjela
p1592
sI1600
VjinhoMne
p1593
sI1601
VjiwanI
p1594
sI1602
Vjiwane
p1595
sI1603
VjoKAMga
p1596
sI1604
Vjona
p1597
sI1605
Vjora
p1598
sI1606
VkAna
p1599
sI1607
VkAnoM
p1600
sI1608
VkEMdI
p1601
sI1609
VkImawa
p1602
sI1610
VkOYla
p1603
sI1611
VkOYraporeta
p1604
sI1612
VkOna
p1605
sI1613
VkaMPartebala
p1606
sI1614
Vkahane
p1607
sI1615
Vkamajora
p1608
sI1616
VkarAwA
p1609
sI1617
VkarAwI
p1610
sI1618
VkaravAne
p1611
sI1619
VkaregI
p1612
sI1620
VkarnAtaka
p1613
sI1621
VkarodZoM
p1614
sI1622
VkiwAbeM
p1615
sI1623
Vkiye
p1616
sI1624
VkoSiSeM
p1617
sI1625
VkolaMbo
p1618
sI1626
VkotaxvAra
p1619
sI1627
VkqpAoM
p1620
sI1628
VkrIdZAoM
p1621
sI1629
VkrUja
p1622
sI1630
Vkreja
p1623
sI1631
VkuMBa
p1624
sI1632
VkullU
p1625
sI1633
VkumBa
p1626
sI1634
VlAita
p1627
sI1635
VlIjie
p1628
sI1636
VlaMbA
p1629
sI1637
VlagAe
p1630
sI1638
VlambI
p1631
sI1639
VleMge
p1632
sI1640
VliKane
p1633
sI1641
Vlipastika
p1634
sI1642
Vlista
p1635
sI1643
VmAM
p1636
sI1644
VmAlika
p1637
sI1645
VmAno
p1638
sI1646
VmArketa
p1639
sI1647
VmEnejara
p1640
sI1648
VmOjUxA
p1641
sI1649
VmOke
p1642
sI1650
VmaCalI
p1643
sI1651
VmaCaliyoM
p1644
sI1652
VmaMjila
p1645
sI1653
VmahaMgA
p1646
sI1654
VmahaMgI
p1647
sI1655
VmanA
p1648
sI1656
VmanAnA
p1649
sI1657
Vmanohara
p1650
sI1658
VmanoraMjana
p1651
sI1659
Vmele
p1652
sI1660
VmerA
p1653
sI1661
VmilAkara
p1654
sI1662
VmilanA
p1655
sI1663
Vmilawe
p1656
sI1664
Vmile
p1657
sI1665
Vmisa
p1658
sI1666
VmobAila
p1659
sI1667
Vmoha
p1660
sI1668
VmukweSvara
p1661
sI1669
VnAgarikoM
p1662
sI1670
VnAgoA
p1663
sI1671
VnEnA
p1664
sI1672
VnO
p1665
sI1673
VnOYna
p1666
sI1674
VnOYrWa
p1667
sI1675
VnOkA
p1668
sI1676
VnajZara
p1669
sI1677
VnamUnA
p1670
sI1678
VnanxI
p1671
sI1679
Vnavambara
p1672
sI1680
VnaxiyAM
p1673
sI1681
VnaxiyAz
p1674
sI1682
Vnepalasa
p1675
sI1683
VnijI
p1676
sI1684
Vniyamiwa
p1677
sI1685
VnyU
p1678
sI1686
VpA
p1679
sI1687
VpEra
p1680
sI1688
VpUjA
p1681
sI1689
VpUla
p1682
sI1690
VpUrNa
p1683
sI1691
VpaMjAba
p1684
sI1692
VpaNajI
p1685
sI1693
VpaTAnakota
p1686
sI1694
Vpablika
p1687
sI1695
VpadZe
p1688
sI1696
VparaPOYrma
p1689
sI1697
Vparivarwiwa
p1690
sI1698
VpariveSa
p1691
sI1699
VparvawArohaNa
p1692
sI1700
VparvawoM
p1693
sI1701
VplAniMga
p1694
sI1702
Vpola
p1695
sI1703
Vpolo
p1696
sI1704
VprAiveta
p1697
sI1705
VprayAga
p1698
sI1706
VprayAsa
p1699
sI1707
VpremiyoM
p1700
sI1708
VpyAra
p1701
sI1709
VrAjAoM
p1702
sI1710
VrAmeSvarama
p1703
sI1711
VrAnI
p1704
sI1712
VrOYyala
p1705
sI1713
VraKI
p1706
sI1714
VraMgoM
p1707
sI1715
VraNaWaMBOra
p1708
sI1716
VregiswAnI
p1709
sI1717
VresiMga
p1710
sI1718
Vresta
p1711
sI1719
VrilEksa
p1712
sI1720
Vrisarca
p1713
sI1721
Vropa
p1714
sI1722
Vrukane
p1715
sI1723
VrumAnI
p1716
sI1724
VsAhiba
p1717
sI1725
VsAikaliMga
p1718
sI1726
VsAnAsara
p1719
sI1727
VsAre
p1720
sI1728
VsEMkcuarI
p1721
sI1729
VsEnika
p1722
sI1730
VsImiwa
p1723
sI1731
VsOnxarya
p1724
sI1732
VsaByawA
p1725
sI1733
VsaMbaMXa
p1726
sI1734
VsaMgrahAlaya
p1727
sI1735
VsaMracanA
p1728
sI1736
VsaPArI
p1729
sI1737
Vsahiwa
p1730
sI1738
VsalIma
p1731
sI1739
VsamaJane
p1732
sI1740
VsamarU
p1733
sI1741
VsamasyA
p1734
sI1742
Vsamete
p1735
sI1743
Vsammilana
p1736
sI1744
VsarasvawI
p1737
sI1745
Vsarkala
p1738
sI1746
Vsaswe
p1739
sI1747
VsavAla
p1740
sI1748
VsavArI
p1741
sI1749
VseSana
p1742
sI1750
Vsehawa
p1743
sI1751
VseliMga
p1744
sI1752
VsevAoM
p1745
sI1753
VsiMgApura
p1746
sI1754
Vsikkima
p1747
sI1755
VskI
p1748
sI1756
VskOYtalEMda
p1749
sI1757
VsnEksa
p1750
sI1758
VsnoPOYla
p1751
sI1759
VstUdeMtsa
p1752
sI1760
Vsunxara
p1753
sI1761
VsuviXAez
p1754
sI1762
VsvAxa
p1755
sI1763
Vsvarga
p1756
sI1764
VtAimsa
p1757
sI1765
VteMpala
p1758
sI1766
VtrAMjEkSana
p1759
sI1767
VtrEPika
p1760
sI1768
VtriyA
p1761
sI1769
Vucca
p1762
sI1770
Vunase
p1763
sI1771
Vuwarane
p1764
sI1772
Vuwpanna
p1765
sI1773
VuwwarAKaMda
p1766
sI1774
VuwwarI
p1767
sI1775
VuxyAnoM
p1768
sI1776
VvAildalAiPa
p1769
sI1777
VvAswuSAswra
p1770
sI1778
VvAswukalA
p1771
sI1779
VvAtara
p1772
sI1780
VvESvika
p1773
sI1781
VvIkeMda
p1774
sI1782
VvaranA
p1775
sI1783
VvaswuoM
p1776
sI1784
Vvejiteriyana
p1777
sI1785
Vvesta
p1778
sI1786
VvhIlsa
p1779
sI1787
VviSeRawA
p1780
sI1788
VviSvaswarIya
p1781
sI1789
VvicAra
p1782
sI1790
Vviswqwa
p1783
sI1791
VwIrWayAwrA
p1784
sI1792
VwahasIla
p1785
sI1793
VwatIya
p1786
sI1794
Vwela
p1787
sI1795
VxAmoM
p1788
sI1796
VxOra
p1789
sI1797
VxUXa
p1790
sI1798
VxakRiNI
p1791
sI1799
VxaravAjA
p1792
sI1800
VxavAiyAM
p1793
sI1801
VxegI
p1794
sI1802
VxevaxAra
p1795
sI1803
VximAga
p1796
sI1804
Vxisambara
p1797
sI1805
VxobArA
p1798
sI1806
VyU
p1799
sI1807
VyUke
p1800
sI1808
VyUropiyana
p1801
sI1809
Vyiara
p1802
sI1810
V02
p1803
sI1811
V11
p1804
sI1812
V150
p1805
sI1813
V1500
p1806
sI1814
V16vIM
p1807
sI1815
V1961
p1808
sI1816
V2009
p1809
sI1817
V21
p1810
sI1818
V26
p1811
sI1819
V29
p1812
sI1820
V310
p1813
sI1821
V32
p1814
sI1822
V350
p1815
sI1823
V750
p1816
sI1824
V8
sI1825
V800
p1817
sI1826
V9
sI1827
V90
p1818
sI1828
VAMKa
p1819
sI1829
VAMXrapraxeSa
p1820
sI1830
VAScaryoM
p1821
sI1831
VATa
p1822
sI1832
VAXe
p1823
sI1833
VAegI
p1824
sI1834
VAijavAla
p1825
sI1835
VAjAxa
p1826
sI1836
VAkarRaNoM
p1827
sI1837
VAmaxanI
p1828
sI1838
VApase
p1829
sI1839
VArAmaxAyaka
p1830
sI1840
VAraMBika
p1831
sI1841
VArtista
p1832
sI1842
VAvAja
p1833
sI1843
VAvaSyakawA
p1834
sI1844
VAxivAsI
p1835
sI1845
VAyaPila
p1836
sI1846
VBUKa
p1837
sI1847
VBarane
p1838
sI1848
VBarosA
p1839
sI1849
VBavyawA
p1840
sI1850
VBugawAna
p1841
sI1851
VCavi
p1842
sI1852
VCedZaCAdZa
p1843
sI1853
VCodZakara
p1844
sI1854
VDAI
p1845
sI1855
VDakI
p1846
sI1856
VGAsa
p1847
sI1857
VGAte
p1848
sI1858
VGAtiyoM
p1849
sI1859
VGUmanA
p1850
sI1860
VGUmawI
p1851
sI1861
VGUmeM
p1852
sI1862
VGatanAoM
p1853
sI1863
VGire
p1854
sI1864
VGoGalA
p1855
sI1865
VGoRiwa
p1856
sI1866
VGudZasavArI
p1857
sI1867
VGumakkadZoM
p1858
sI1868
VIMXana
p1859
sI1869
VKAeM
p1860
sI1870
VKAlI
p1861
sI1871
VKabara
p1862
sI1872
VKajAne
p1863
sI1873
VKaware
p1864
sI1874
VKelane
p1865
sI1875
VKilAPa
p1866
sI1876
VKola
p1867
sI1877
VKuSI
p1868
sI1878
VOYlI
p1869
sI1879
VOYparetarsa
p1870
sI1880
VOYrovile
p1871
sI1881
VOYstriyA
p1872
sI1882
VOYyala
p1873
sI1883
VOlI
p1874
sI1884
VPESana
p1875
sI1885
VPIsa
p1876
sI1886
VPala
p1877
sI1887
VPaloM
p1878
sI1888
VPevarita
p1879
sI1889
VPiSiMga
p1880
sI1890
VPilmoM
p1881
sI1891
VPlAiMga
p1882
sI1892
VPorta
p1883
sI1893
VPoto
p1884
sI1894
VPreMdsa
p1885
sI1895
VSAhI
p1886
sI1896
VSAha
p1887
sI1897
VSAsana
p1888
sI1898
VSEla
p1889
sI1899
VSOkInoM
p1890
sI1900
VSabxa
p1891
sI1901
VSabxoM
p1892
sI1902
VSaharI
p1893
sI1903
VSarAbe
p1894
sI1904
VSela
p1895
sI1905
VSikAyawa
p1896
sI1906
VSrInagara
p1897
sI1907
VSraxXAlu
p1898
sI1908
VSrqMKalA
p1899
sI1909
VTahara
p1900
sI1910
VWAI
p1901
sI1911
VXAmirka
p1902
sI1912
VXArAez
p1903
sI1913
VaMwa
p1904
sI1914
VaMwargawa
p1905
sI1915
VaNdamAna
p1906
sI1916
VaSoka
p1907
sI1917
VaXiBAra
p1908
sI1918
VajAyabaGara
p1909
sI1919
VakelA
p1910
sI1920
VakwUbara
p1911
sI1921
ValArma
p1912
sI1922
VamarAvawI
p1913
sI1923
VanUTA
p1914
sI1924
VanoKA
p1915
sI1925
VarAvalI
p1916
sI1926
VaraMbola
p1917
sI1927
VarabiMxo
p1918
sI1928
Vasama
p1919
sI1929
VatrEkSana
p1920
sI1930
VavaSeRa
p1921
sI1931
VawIwa
p1922
sI1932
VawulanIya
p1923
sI1933
VbAharI
p1924
sI1934
VbAikiMga
p1925
sI1935
VbEgsa
p1926
sI1936
VbIcoM
p1927
sI1937
VbIcoMbIca
p1928
sI1938
VbOYlivuda
p1929
sI1939
VbOYtala
p1930
sI1940
VbaDZane
p1931
sI1941
VbaDZawe
p1932
sI1942
VbacAne
p1933
sI1943
Vbaca
p1934
sI1944
Vbace
p1935
sI1945
VbahAxura
p1936
sI1946
VbahawI
p1937
sI1947
VbanAI
p1938
sI1948
VbarPabArI
p1939
sI1949
Vbaragaxa
p1940
sI1950
Vbarawane
p1941
sI1951
VbasoM
p1942
sI1952
Vbaxalawe
p1943
sI1953
VberInAga
p1944
sI1954
Vbevareja
p1945
sI1955
VbijI
p1946
sI1956
VboXa
p1947
sI1957
VboXi
p1948
sI1958
VbotiMga
p1949
sI1959
VbrAMda
p1950
sI1960
VbrahmA
p1951
sI1961
Vbritena
p1952
sI1962
VcAMsa
p1953
sI1963
VcAMxa
p1954
sI1964
VcAla
p1955
sI1965
VcAlakoM
p1956
sI1966
VcAxara
p1957
sI1967
VcaDZAva
p1958
sI1968
VcaDZane
p1959
sI1969
VcaMdIgaDZa
p1960
sI1970
VcaMxa
p1961
sI1971
VcalAne
p1962
sI1972
VcalanA
p1963
sI1973
Vcale
p1964
sI1974
VcaraNa
p1965
sI1975
VcattAnI
p1966
sI1976
Vcekaapa
p1967
sI1977
VceyaramEna
p1968
sI1978
VciMwA
p1969
sI1979
Vcinhiwa
p1970
sI1980
VciwrakArI
p1971
sI1981
VcotiyoM
p1972
sI1982
VcukAnA
p1973
sI1983
VcunA
p1974
sI1984
VcuneM
p1975
sI1985
VdAlA
p1976
sI1986
VdAyarektara
p1977
sI1987
Vde
p1978
sI1988
VdihAidreSana
p1979
sI1989
VeMtaratenameMta
p1980
sI1990
VeMtrI
p1981
sI1991
VedavAMsa
p1982
sI1992
Vedavarda
p1983
sI1993
Veja
p1984
sI1994
VekstrA
p1985
sI1995
Vekveriyama
p1986
sI1996
Velpsa
p1987
sI1997
VetalAMtika
p1988
sI1998
VgAMvoM
p1989
sI1999
VgAdiyoM
p1990
sI2000
VgAzva
p1991
sI2001
VgAzvoM
p1992
sI2002
VgaTajodZa
p1993
sI2003
VgaharAI
p1994
sI2004
Vgawi
p1995
sI2005
VgawiviXiyoM
p1996
sI2006
VgayI
p1997
sI2007
Vgeta
p1998
sI2008
Vgira
p1999
sI2009
VgirajAGara
p2000
sI2010
VglAsa
p2001
sI2011
VgovadZA
p2002
sI2012
Vgoyala
p2003
sI2013
VguPAez
p2004
sI2014
VgujarAwa
p2005
sI2015
VguvAhAtI
p2006
sI2016
VhAWI
p2007
sI2017
VhAWiyoM
p2008
sI2018
VhAlAwa
p2009
sI2019
VhAsila
p2010
sI2020
VhEMga
p2011
sI2021
VhOYta
p2012
sI2022
VhaPwoM
p2013
sI2023
VhariyANA
p2014
sI2024
VhasIna
p2015
sI2025
VhaswaSilpa
p2016
sI2026
Vhatakara
p2017
sI2027
Vhaxa
p2018
sI2028
Vheda
p2019
sI2029
VhiMxU
p2020
sI2030
VhiMxuswAnI
p2021
sI2031
Vhimanaxa
p2022
sI2032
Vhoma
p2023
sI2033
ViSArA
p2024
sI2034
VikalOwA
p2025
sI2035
VinPrAstrakcara
p2026
sI2036
Vinakama
p2027
sI2037
VislAmI
p2028
sI2038
VislAmika
p2029
sI2039
VjAdZe
p2030
sI2040
VjAnanA
p2031
sI2041
VjAnavaroM
p2032
sI2042
VjIpa
p2033
sI2043
VjIva
p2034
sI2044
VjOYna
p2035
sI2045
VjaPara
p2036
sI2046
VjalamArga
p2037
sI2047
VjanawA
p2038
sI2048
Vjannawa
p2039
sI2049
VjarUrawoM
p2040
sI2050
VjarmanI
p2041
sI2051
Vjarmana
p2042
sI2052
Vjeba
p2043
sI2053
Vjemsa
p2044
sI2054
VjiMjara
p2045
sI2055
Vjima
p2046
sI2056
VjimmexArI
p2047
sI2057
Vjina
p2048
sI2058
VjisakI
p2049
sI2059
VjoMga
p2050
sI2060
VjoSa
p2051
sI2061
VjoXapura
p2052
sI2062
VjodZane
p2053
sI2063
VjukAma
p2054
sI2064
VkATagoxAma
p2055
sI2065
VkArIgaroM
p2056
sI2066
VkAraNoM
p2057
sI2067
VkArya
p2058
sI2068
VkAryakalApa
p2059
sI2069
VkAyaro
p2060
sI2070
VkEmarA
p2061
sI2071
VkOYksa
p2062
sI2072
VkOYmidI
p2063
sI2073
VkOYraporeSana
p2064
sI2074
VkOYrka
p2065
sI2075
VkOYteja
p2066
sI2076
VkaMpyUtara
p2067
sI2077
VkaMtrola
p2068
sI2078
VkaWA
p2069
sI2079
VkahAnI
p2070
sI2080
VkahI
p2071
sI2081
VkalAwmaka
p2072
sI2082
VkamarA
p2073
sI2083
VkarAI
p2074
sI2084
VkaraMsI
p2075
sI2085
VkaravAeM
p2076
sI2086
Vkare
p2077
sI2087
VkarmacAriyoM
p2078
sI2088
VkarnAlA
p2079
sI2089
Vkarnala
p2080
sI2090
VkaroM
p2081
sI2091
Vkavara
p2082
sI2092
Vkavi
p2083
sI2093
VkawAroM
p2084
sI2094
Vkebala
p2085
sI2095
Vkeela
p2086
sI2096
Vkempe
p2087
sI2097
VkenxrIya
p2088
sI2098
VkiMga
p2089
sI2099
VkiloM
p2090
sI2100
VkimI.
p2091
sI2101
VkiwAba
p2092
sI2102
VklAiMbiMga
p2093
sI2103
Vklaba
p2094
sI2104
Vkorsa
p2095
sI2105
Vkostara
p2096
sI2106
VkrU
p2097
sI2107
VkrejI
p2098
sI2108
Vkriketara
p2099
sI2109
VkuttanAdZa
p2100
sI2110
VkvAlAlaMpura
p2101
sI2111
VlAgU
p2102
sI2112
VlUja
p2103
sI2113
VlaKanaU
p2104
sI2114
VlaMbAI
p2105
sI2115
VladZakiyAM
p2106
sI2116
VlagUna
p2107
sI2117
VlageMge
p2108
sI2118
VlaharoM
p2109
sI2119
VlakRya
p2110
sI2120
Vlavarsa
p2111
sI2121
VlenA
p2112
sI2122
Vleta
p2113
sI2123
Vlo
p2114
sI2124
Vloka
p2115
sI2125
VluBAvane
p2116
sI2126
VluBAwe
p2117
sI2127
VmAGa
p2118
sI2128
VmAnava
p2119
sI2129
VmAnawe
p2120
sI2130
VmAuMta
p2121
sI2131
VmAuMtena
p2122
sI2132
VmITe
p2123
sI2133
VmOYnasUna
p2124
sI2134
VmUda
p2125
sI2135
VmUrwiyoM
p2126
sI2136
VmaMwra
p2127
sI2137
VmaNikaraNa
p2128
sI2138
VmahABArawa
p2129
sI2139
VmahArAjAoM
p2130
sI2140
VmahaMge
p2131
sI2141
VmahaloM
p2132
sI2142
Vmahowsava
p2133
sI2143
VmanAe
p2134
sI2144
Vmanamohaka
p2135
sI2145
VmeGAlaya
p2136
sI2146
Vmedikala
p2137
sI2147
Vmehanawa
p2138
sI2148
Vmemoriyala
p2139
sI2149
VmeraTa
p2140
sI2150
VmisAla
p2141
sI2151
Vmiswra
p2142
sI2152
VmodZa
p2143
sI2153
VmohapASa
p2144
sI2154
Vmomoja
p2145
sI2155
Vmotara
p2146
sI2156
VmuMha
p2147
sI2157
VmusalamAnoM
p2148
sI2158
Vmuslima
p2149
sI2159
Vmuxxe
p2150
sI2160
VnAmaka
p2151
sI2161
VnAriyala
p2152
sI2162
VnAva
p2153
sI2163
VnEcarala
p2154
sI2164
Vnahara
p2155
sI2165
VnavaBArawa
p2156
sI2166
VneSanala
p2157
sI2167
Vnecarala
p2158
sI2168
VniSAnA
p2159
sI2169
Vnigama
p2160
sI2170
VnihAra
p2161
sI2171
VnihArane
p2162
sI2172
VnikalA
p2163
sI2173
VnirNaya
p2164
sI2174
VoraCA
p2165
sI2175
VpAnIpawa
p2166
sI2176
VpAraMparika
p2167
sI2177
VpAzca
p2168
sI2178
VpEMtsa
p2169
sI2179
VpEkijoM
p2170
sI2180
VpEmAne
p2171
sI2181
VpErAseliMga
p2172
sI2182
VpEraMtsa
p2173
sI2183
VpEroM
p2174
sI2184
VpUCane
p2175
sI2185
VpaSuoM
p2176
sI2186
VpadZAva
p2177
sI2187
VpadZI
p2178
sI2188
VpahAdZiyAz
p2179
sI2189
VpahuMcawe
p2180
sI2190
VparIkRA
p2181
sI2191
VparaMparA
p2182
sI2192
Vparaheja
p2183
sI2193
VparamparA
p2184
sI2194
VpareSAnI
p2185
sI2195
Vparisajjiwa
p2186
sI2196
VparivAra
p2187
sI2197
Vparivarwana
p2188
sI2198
VpeMtiMgsa
p2189
sI2199
VpirAmida
p2190
sI2200
VplIja
p2191
sI2201
Vplena
p2192
sI2202
VprArWanA
p2193
sI2203
VprOYblama
p2194
sI2204
VpraBAva
p2195
sI2205
VpraNAlI
p2196
sI2206
VpraPeSanala
p2197
sI2207
VpraXAnamaMwrI
p2198
sI2208
VpracurawA
p2199
sI2209
VprajAwiyAM
p2200
sI2210
VprakASa
p2201
sI2211
VprawiSawa
p2202
sI2212
VprejidaMta
p2203
sI2213
Vpula
p2204
sI2214
VrARtrapawi
p2205
sI2215
VrAjavaMSa
p2206
sI2216
VrAya
p2207
sI2217
VraKakara
p2208
sI2218
VraKe
p2209
sI2219
VraMgabiraMgI
p2210
sI2220
VraPwAra
p2211
sI2221
VrahanA
p2212
sI2222
VrahasyamayI
p2213
sI2223
VraheMge
p2214
sI2224
VrahegI
p2215
sI2225
Vrakama
p2216
sI2226
VreKA
p2217
sI2227
VreswarAoM
p2218
sI2228
Vrijarva
p2219
sI2229
Vrivara
p2220
sI2230
Vroda
p2221
sI2231
VrohawAMga
p2222
sI2232
VrojAnA
p2223
sI2233
Vroka
p2224
sI2234
VromAMtika
p2225
sI2235
VromEMtika
p2226
sI2236
Vromana
p2227
sI2237
VsAMda
p2228
sI2238
VsAMsa
p2229
sI2239
VsAhasa
p2230
sI2240
VsAita
p2231
sI2241
VsAitsa
p2232
sI2242
VsAmanA
p2233
sI2243
VsArA
p2234
sI2244
VsAvaXAnI
p2235
sI2245
VsAvaXAna
p2236
sI2246
VsEMda
p2237
sI2247
VsErasapAte
p2238
sI2248
VsIkarI
p2239
sI2249
VsUcI
p2240
sI2250
VsUryAswa
p2241
sI2251
VsUxiMga
p2242
sI2252
VsaMBalakara
p2243
sI2253
VsaMcAliwa
p2244
sI2254
VsaMkula
p2245
sI2255
VsaPala
p2246
sI2256
VsaPexa
p2247
sI2257
Vsacamuca
p2248
sI2258
Vsahejakara
p2249
sI2259
Vsaje
p2250
sI2260
VsamAXi
p2251
sI2261
VsamApwa
p2252
sI2262
VsamaJA
p2253
sI2263
VsamaJOwA
p2254
sI2264
Vsamewa
p2255
sI2265
VsamrAta
p2256
sI2266
Vsamuxa
p2257
sI2267
VsapanA
p2258
sI2268
Vsapane
p2259
sI2269
VsarPiMga
p2260
sI2270
VsarPinga
p2261
sI2271
VsariskA
p2262
sI2272
VsarvaSreRTa
p2263
sI2273
Vsarve
p2264
sI2274
VsaxiyoM
p2265
sI2275
VsekaMda
p2266
sI2276
VselA
p2267
sI2277
VsidanI
p2268
sI2278
VsitijaMsa
p2269
sI2279
VsixXArWa
p2270
sI2280
VskUtara
p2271
sI2281
VsketiMga
p2272
sI2282
VskyUbA
p2273
sI2283
VsmokiMga
p2274
sI2284
Vsneka
p2275
sI2285
VsnorakeliMga
p2276
sI2286
VsolAMga
p2277
sI2287
VspOYtsa
p2278
sI2288
Vsrowa
p2279
sI2289
VstAra
p2280
sI2290
VstOYpa
p2281
sI2291
Vsteta
p2282
sI2292
VstrIta
p2283
sI2293
VsunaharA
p2284
sI2294
VsurakaMdA
p2285
sI2295
Vsuramya
p2286
sI2296
VsuviXAoM
p2287
sI2297
VsvAmiwva
p2288
sI2298
VsvimiMga
p2289
sI2299
VswUpa
p2290
sI2300
VtAMga
p2291
sI2301
VtAigara
p2292
sI2302
VtIle
p2293
sI2303
VtIvI
p2294
sI2304
VtOYvala
p2295
sI2305
VtOYvara
p2296
sI2306
VtUristsa
p2297
sI2307
Vtebala
p2298
sI2308
Vteka
p2299
sI2309
VtikatoM
p2300
sI2310
Vtipsa
p2301
sI2311
VtrEvalarsa
p2302
sI2312
VtrItameMta
p2303
sI2313
VtrItameMtsa
p2304
sI2314
VtradiSanala
p2305
sI2315
VtreMda
p2306
sI2316
Vtripsa
p2307
sI2317
VuTAkara
p2308
sI2318
VuTAne
p2309
sI2319
VuTAyA
p2310
sI2320
VuTa
p2311
sI2321
Vubarane
p2312
sI2322
VudZIsA
p2313
sI2323
Vupayoga
p2314
sI2324
Vusane
p2315
sI2325
VuwAra
p2316
sI2326
VuwanA
p2317
sI2327
VuwsukawA
p2318
sI2328
VvAswava
p2319
sI2329
VvAswavika
p2320
sI2330
VvElI
p2321
sI2331
VvOYciMga
p2322
sI2332
VvOYra
p2323
sI2333
VvahI
p2324
sI2334
VvargIkqwa
p2325
sI2335
Vvarga
p2326
sI2336
Vveja
p2327
sI2337
Vvelanesa
p2328
sI2338
Vvena
p2329
sI2339
VviKyAwa
p2330
sI2340
VviMtara
p2331
sI2341
VviSeRawaH
p2332
sI2342
VvijFAna
p2333
sI2343
Vvijita
p2334
sI2344
Vvileja
p2335
sI2345
VviswAra
p2336
sI2346
VvivAxa
p2337
sI2347
VviviXawA
p2338
sI2348
VvqMxAvana
p2339
sI2349
VvqkRa
p2340
sI2350
VvyU
p2341
sI2351
VwAkawa
p2342
sI2352
VwArIPa
p2343
sI2353
VwInoM
p2344
sI2354
VwIrWasWala
p2345
sI2355
VwabIyawa
p2346
sI2356
VwakalIPa
p2347
sI2357
VwamilanAdu
p2348
sI2358
VwarIke
p2349
sI2359
Vwarja
p2350
sI2360
VwatoM
p2351
sI2361
VwibbawiyoM
p2352
sI2362
VxAyeM
p2353
sI2363
VxIjie
p2354
sI2364
VxUrabIna
p2355
sI2365
VxUsaroM
p2356
sI2366
VxalAI
p2357
sI2367
VxaroM
p2358
sI2368
VxarrA
p2359
sI2369
VxeKiye
p2360
sI2370
VxiKane
p2361
sI2371
Vxikkawa
p2362
sI2372
Vxoswa
p2363
sI2373
VxqSyoM
p2364
sI2374
VxuXavA
p2365
sI2375
VxurgA
p2366
sI2376
Vxuruswa
p2367
sI2377
VyAwrAoM
p2368
sI2378
VyUM
p2369
sI2379
VyUnesko
p2370
sI2380
VyajFa
p2371
sI2381
Vyukwa
p2372
sI2382
V024
p2373
sI2383
V100
p2374
sI2384
V1000
p2375
sI2385
V110
p2376
sI2386
V11vIM
p2377
sI2387
V135
p2378
sI2388
V17
p2379
sI2389
V18vIM
p2380
sI2390
V2000
p2381
sI2391
V2013
p2382
sI2392
V2194
p2383
sI2393
V22
p2384
sI2394
V23veM
p2385
sI2395
V240
p2386
sI2396
V250
p2387
sI2397
V360
p2388
sI2398
V440
p2389
sI2399
V5000
p2390
sI2400
V52
p2391
sI2401
V54
p2392
sI2402
V58
p2393
sI2403
V600
p2394
sI2404
V65
p2395
sI2405
V82
p2396
sI2406
V85
p2397
sI2407
V96
p2398
sI2408
VAMXra
p2399
sI2409
VAMkadZoM
p2400
sI2410
VASaMkA
p2401
sI2411
VASrama
p2402
sI2412
VAXAriwa
p2403
sI2413
VAXI
p2404
sI2414
VAcCAxiwa
p2405
sI2415
VAeMge
p2406
sI2416
VAegA
p2407
sI2417
VAibroja
p2408
sI2418
VAideMtitI
p2409
sI2419
VAkAra
p2410
sI2420
VAkirtekta
p2411
sI2421
VAkqwiyoM
p2412
sI2422
VAlISAna
p2413
sI2423
VAraMBa
p2414
sI2424
VArkaRaNa
p2415
sI2425
VArohI
p2416
sI2426
VArohiyoM
p2417
sI2427
VArtiPiSala
p2418
sI2428
VAvAsoM
p2419
sI2429
VAxaraNIya
p2420
sI2430
VAyI
p2421
sI2431
VAyarapawwA
p2422
sI2432
VAyurvexika
p2423
sI2433
VAzKoM
p2424
sI2434
VBA
p2425
sI2435
VBARA
p2426
sI2436
VBAdZa
p2427
sI2437
VBAgA
p2428
sI2438
VBAlukapOYnga
p2429
sI2439
VBAva
p2430
sI2440
VBUlawA
p2431
sI2441
VBUwakAla
p2432
sI2442
VBakwoM
p2433
sI2443
VBaviRya
p2434
sI2444
VBejA
p2435
sI2445
VBiwwI
p2436
sI2446
VBojana
p2437
sI2447
VBugawanA
p2438
sI2448
VBulA
p2439
sI2449
VBulAe
p2440
sI2450
VCUwI
p2441
sI2451
VCUwe
p2442
sI2452
VCaH
p2443
sI2453
VCatA
p2444
sI2454
VCatane
p2445
sI2455
VCawarI
p2446
sI2456
VCipe
p2447
sI2457
VCodZa
p2448
sI2458
VCodZane
p2449
sI2459
VCuttI
p2450
sI2460
VDakA
p2451
sI2461
VDalAnoM
p2452
sI2462
VDeroM
p2453
sI2463
VEMda
p2454
sI2464
VEMgalsa
p2455
sI2465
VEktivitIja
p2456
sI2466
VEktrisa
p2457
sI2467
VEnimeSana
p2458
sI2468
VErosportsa
p2459
sI2469
VGAtiyAM
p2460
sI2470
VGUmakara
p2461
sI2471
VGUmawe
p2462
sI2472
VGaMtI
p2463
sI2473
VGadZI
p2464
sI2474
VGatAne
p2465
sI2475
VGatanA
p2466
sI2476
VGirI
p2467
sI2477
VGoRaNA
p2468
sI2478
VGodZoM
p2469
sI2479
VGumakkadZI
p2470
sI2480
VISvara
p2471
sI2481
VIsAI
p2472
sI2482
VIva
p2473
sI2483
VJUmane
p2474
sI2484
VJelanA
p2475
sI2485
VKA
p2476
sI2486
VKAmiyAjA
p2477
sI2487
VKAna
p2478
sI2488
VKAnapAna
p2479
sI2489
VKAsiyawa
p2480
sI2490
VKAwA
p2481
sI2491
VKAwe
p2482
sI2492
VKAyA
p2483
sI2493
VKEra
p2484
sI2494
VKIMcane
p2485
sI2495
VKIMcawA
p2486
sI2496
VKUna
p2487
sI2497
VKaMBe
p2488
sI2498
VKarIxanA
p2489
sI2499
VKewoM
p2490
sI2500
VKo
p2491
sI2501
VKolA
p2492
sI2502
VKuKarI
p2493
sI2503
VKuSa
p2494
sI2504
VKuSabUxAra
p2495
sI2505
VKuSagavAra
p2496
sI2506
VKulawe
p2497
sI2507
VKvAhiSa
p2498
sI2508
VOYPabIta
p2499
sI2509
VOYparetara
p2500
sI2510
VOYparetaroM
p2501
sI2511
VOYrganAijeSana
p2502
sI2512
VOYrieMtala
p2503
sI2513
VOYrkidsa
p2504
sI2514
VOYstriyana
p2505
sI2515
VOYtorikSA
p2506
sI2516
VOpacArikawAeM
p2507
sI2517
VOxyogika
p2508
sI2518
VPOYrana
p2509
sI2519
VPeSala
p2510
sI2520
VPiSa
p2511
sI2521
VPiksada
p2512
sI2522
VPilda
p2513
sI2523
VPilma
p2514
sI2524
VPilmeM
p2515
sI2525
VPlEga
p2516
sI2526
VPrAMsIsI
p2517
sI2527
VPrAMsisI
p2518
sI2528
VPrI
p2519
sI2529
VPreMca
p2520
sI2530
VPreSanara
p2521
sI2531
VS
sI2532
VSAhajahAM
p2522
sI2533
VSAhajahAz
p2523
sI2534
VSAsakoM
p2524
sI2535
VSAsiwa
p2525
sI2536
VSEva
p2526
sI2537
VSIrRa
p2527
sI2538
VSIwa
p2528
sI2539
VSOYrta
p2529
sI2540
VSOYrtsa
p2530
sI2541
VSaMkara
p2531
sI2542
VSakwiSAlI
p2532
sI2543
VSarmA
p2533
sI2544
VSarta
p2534
sI2545
VSarwa
p2535
sI2546
VSepa
p2536
sI2547
VSikAgA
p2537
sI2548
VSikRA
p2538
sI2549
VSilpa
p2539
sI2550
VSimarI
p2540
sI2551
VSivAjI
p2541
sI2552
VSivAlika
p2542
sI2553
VSivira
p2543
sI2554
VSixxawa
p2544
sI2555
VSoRaNa
p2545
sI2556
VSrIraMgapattama
p2546
sI2557
VSrqMKalAoM
p2547
sI2558
VSukravAra
p2548
sI2559
VSuru
p2549
sI2560
VTaMdaka
p2550
sI2561
VTahareM
p2551
sI2562
VURNa
p2552
sI2563
VUrjA
p2553
sI2564
VUtI
p2554
sI2565
VWAilEMda
p2555
sI2566
VWaka
p2556
sI2567
VWiMpU
p2557
sI2568
VWietara
p2558
sI2569
VXAna
p2559
sI2570
VXArAoM
p2560
sI2571
VXOja
p2561
sI2572
VXUla
p2562
sI2573
VXadZakana
p2563
sI2574
VXarohara
p2564
sI2575
Va
sI2576
VaBiyAnoM
p2565
sI2577
VaMSa
p2566
sI2578
VaMgrejI
p2567
sI2579
VaSva
p2568
sI2580
VaSvameXa
p2569
sI2581
VaWavA
p2570
sI2582
VaXUrI
p2571
sI2583
VaXikAMSa
p2572
sI2584
VaXikArI
p2573
sI2585
VadavAMsa
p2574
sI2586
Vadde
p2575
sI2587
VajFAwa
p2576
sI2588
ValOkika
p2577
sI2589
VamAuMta
p2578
sI2590
VanUTI
p2579
sI2591
VanuBavoM
p2580
sI2592
VanuyAyiyoM
p2581
sI2593
VanwarrARtrIya
p2582
sI2594
VanwarreKA
p2583
sI2595
Vanxara
p2584
sI2596
VapAra
p2585
sI2597
VarAXanA
p2586
sI2598
VarWa
p2587
sI2599
VaraviMxa
p2588
sI2600
Varjuna
p2589
sI2601
VasIma
p2590
sI2602
VasWAI
p2591
sI2603
VatalAMtika
p2592
sI2604
VavawAra
p2593
sI2605
VaviSvasanIya
p2594
sI2606
VavismaraNIya
p2595
sI2607
VaxBuwa
p2596
sI2608
VaxilAbAxa
p2597
sI2609
VbAWa
p2598
sI2610
VbAWarUma
p2599
sI2611
VbAla
p2600
sI2612
VbAraKora
p2601
sI2613
VbAxaSAha
p2602
sI2614
VbEMka
p2603
sI2615
VbETI
p2604
sI2616
VbETa
p2605
sI2617
VbETeM
p2606
sI2618
VbEktIriyA
p2607
sI2619
VbEleMsa
p2608
sI2620
VbEna
p2609
sI2621
VbIara
p2610
sI2622
VbIdsa
p2611
sI2623
VbOYtama
p2612
sI2624
VbOYtanikala
p2613
sI2625
VbUJa
p2614
sI2626
Vba
p2615
sI2627
VbaDZAvA
p2616
sI2628
VbaDZAwA
p2617
sI2629
VbaDZawA
p2618
sI2630
VbaDZowarI
p2619
sI2631
VbacA
p2620
sI2632
VbacAe
p2621
sI2633
VbagIce
p2622
sI2634
VbagadogarA
p2623
sI2635
VbaharahAla
p2624
sI2636
VbajAne
p2625
sI2637
VbanAkara
p2626
sI2638
VbanAwA
p2627
sI2639
VbanavAe
p2628
sI2640
VbanawI
p2629
sI2641
VbarAxarI
p2630
sI2642
VbarPIlI
p2631
sI2643
VbarasAwa
p2632
sI2644
VbataraPlAI
p2633
sI2645
VbawA
p2634
sI2646
VbawAI
p2635
sI2647
VbaxalA
p2636
sI2648
Vbaxalane
p2637
sI2649
VbayAra
p2638
sI2650
Vbecane
p2639
sI2651
Vbesa
p2640
sI2652
Vbesika
p2641
sI2653
VbetI
p2642
sI2654
Vbete
p2643
sI2655
VbiTUra
p2644
sI2656
VbigAdZa
p2645
sI2657
VbildiMga
p2646
sI2658
VbiraMgI
p2647
sI2659
VbiwAe
p2648
sI2660
VbiwAnA
p2649
sI2661
VblEka
p2650
sI2662
Vbotsa
p2651
sI2663
Vbraja
p2652
sI2664
VbuMxelA
p2653
sI2665
VbuMxelAoM
p2654
sI2666
Vbuketa
p2655
sI2667
VbunI
p2656
sI2668
Vbure
p2657
sI2669
VbyAsa
p2658
sI2670
VcAMxanI
p2659
sI2671
VcAhawA
p2660
sI2672
VcAinIja
p2661
sI2673
VcArabAga
p2662
sI2674
VcArja
p2663
sI2675
VcAyala
p2664
sI2676
VcEnnE
p2665
sI2677
VcOYisa
p2666
sI2678
VcOdZe
p2667
sI2679
VcaMbA
p2668
sI2680
VcaMxaKAnI
p2669
sI2681
Vcahala
p2670
sI2682
VcakAcOMXa
p2671
sI2683
VcalAI
p2672
sI2684
VcalAe
p2673
sI2685
VcalAyA
p2674
sI2686
Vcalakara
p2675
sI2687
Vcalie
p2676
sI2688
VcamawkArI
p2677
sI2689
VcamawkAra
p2678
sI2690
VcaraNoM
p2679
sI2691
VcattAnoM
p2680
sI2692
Vceksa
p2681
sI2693
Vcena
p2682
sI2694
VcennaI
p2683
sI2695
VciMcavAdZa
p2684
sI2696
VcidZiyoM
p2685
sI2697
VciwrAwmaka
p2686
sI2698
Vciwra
p2687
sI2699
VciwrakUta
p2688
sI2700
Vciwrakuta
p2689
sI2701
VciwwOdZagaDZa
p2690
sI2702
VciyAMga
p2691
sI2703
VcorI
p2692
sI2704
VdAyarI
p2693
sI2705
VdIla
p2694
sI2706
VdOY
p2695
sI2707
VdOYkyUmeMtsa
p2696
sI2708
VdOYnegala
p2697
sI2709
VdOYta
p2698
sI2710
VdelhI
p2699
sI2711
VdijZAina
p2700
sI2712
Vdinara
p2701
sI2713
VdipeMda
p2702
sI2714
VdorawI
p2703
sI2715
VdrAivara
p2704
sI2716
Vdragsa
p2705
sI2717
Vdresa
p2706
sI2718
Vdreseja
p2707
sI2719
VdriMka
p2708
sI2720
VdyUnsa
p2709
sI2721
VeMgala
p2710
sI2722
VeSiyAI
p2711
sI2723
VeSiyana
p2712
sI2724
VedEptara
p2713
sI2725
Vedajasta
p2714
sI2726
VehasAsa
p2715
sI2727
VejaMsiyoM
p2716
sI2728
VejeMsiyoM
p2717
sI2729
VeksapIriyaMsa
p2718
sI2730
VeksarasAija
p2719
sI2731
VeliPeMta
p2720
sI2732
VelimeMtsa
p2721
sI2733
VeltItyUda
p2722
sI2734
VemPIWietara
p2723
sI2735
VgElarI
p2724
sI2736
VgOrava
p2725
sI2737
VgaDZa
p2726
sI2738
VgaMwavya
p2727
sI2739
VgaganacuMbI
p2728
sI2740
Vgahare
p2729
sI2741
Vgajaba
p2730
sI2742
VgalI
p2731
sI2743
Vgalawa
p2732
sI2744
Vgarla
p2733
sI2745
VgavAha
p2734
sI2746
VgavAvA
p2735
sI2747
Vgemsa
p2736
sI2748
Vgesta
p2737
sI2749
Vgetave
p2738
sI2750
VgiPta
p2739
sI2751
Vgirxa
p2740
sI2752
VgoA
p2741
sI2753
Vgokula
p2742
sI2754
VgolA
p2743
sI2755
Vgoldana
p2744
sI2756
VgoviMxA
p2745
sI2757
Vgoxa
p2746
sI2758
VgrAuMda
p2747
sI2759
VgrEMda
p2748
sI2760
VgrIna
p2749
sI2761
VgrahaNa
p2750
sI2762
VguPAeM
p2751
sI2763
VgujArie
p2752
sI2764
Vgujarane
p2753
sI2765
VgujarawA
p2754
sI2766
Vguma
p2755
sI2767
VgunA
p2756
sI2768
Vgunnara
p2757
sI2769
VhAidroilEktrika
p2758
sI2770
VhAlawa
p2759
sI2771
VhAliyA
p2760
sI2772
VhAusabota
p2761
sI2773
VhE?
p2762
sI2774
VhEMdIkrAPta
p2763
sI2775
VhElo
p2764
sI2776
VhEpI
p2765
sI2777
VhErAna
p2766
sI2778
VhU
p2767
sI2779
VhaMsAne
p2768
sI2780
VhaMsane
p2769
sI2781
Vhala
p2770
sI2782
Vhalacala
p2771
sI2783
Vhamase
p2772
sI2784
VharaxOla
p2773
sI2785
Vharbala
p2774
sI2786
Vharbsa
p2775
sI2787
VhatAne
p2776
sI2788
VhayAwa
p2777
sI2789
Vhekteyara
p2778
sI2790
VhelWa
p2779
sI2791
Vheriteja
p2780
sI2792
VhevalOYka
p2781
sI2793
VhimAlayI
p2782
sI2794
VhimAlayana
p2783
sI2795
Vhimmawa
p2784
sI2796
Vhinxa
p2785
sI2797
VhinxuoM
p2786
sI2798
VhiraNa
p2787
sI2799
ViMPekSana
p2788
sI2800
ViMdigo
p2789
sI2801
ViMjOYya
p2790
sI2802
ViMsAna
p2791
sI2803
ViMstItyUta
p2792
sI2804
ViMtara
p2793
sI2805
VicCA
p2794
sI2806
VijipSiyana
p2795
sI2807
VimarajeMsI
p2796
sI2808
VinaPrAstrakcara
p2797
sI2809
Vinadevalapa
p2798
sI2810
VinhIM
p2799
sI2811
Virxa
p2800
sI2812
Visane
p2801
sI2813
Viwara
p2802
sI2814
ViwyAxi
p2803
sI2815
VjAMca
p2804
sI2816
VjAie
p2805
sI2817
VjAna
p2806
sI2818
VjAnakAroM
p2807
sI2819
VjApAna
p2808
sI2820
VjAwiyoM
p2809
sI2821
VjAyakA
p2810
sI2822
VjEketa
p2811
sI2823
VjIro
p2812
sI2824
VjUnAgaDZa
p2813
sI2825
VjUwe
p2814
sI2826
VjZarUrawa
p2815
sI2827
VjaSna
p2816
sI2828
VjahAMgIra
p2817
sI2829
VjahAja
p2818
sI2830
Vjalakala
p2819
sI2831
VjallaMxara
p2820
sI2832
Vjalxa
p2821
sI2833
VjamIna
p2822
sI2834
Vjama
p2823
sI2835
Vjariye
p2824
sI2836
Vjasarakota
p2825
sI2837
Vjatila
p2826
sI2838
VjavAba
p2827
sI2839
VjavAna
p2828
sI2840
Vjehana
p2829
sI2841
VjinakA
p2830
sI2842
VjinakI
p2831
sI2843
Vjinase
p2832
sI2844
Vjinnasa
p2833
sI2845
Vjisane
p2834
sI2846
VjogI
p2835
sI2847
VjohAnisabarga
p2836
sI2848
Vjoka
p2837
sI2849
VjubAna
p2838
sI2850
VkAMgadZA
p2839
sI2851
VkASwakAroM
p2840
sI2852
VkAbU
p2841
sI2853
VkAlacakra
p2842
sI2854
VkAle
p2843
sI2855
VkAliMxIKala
p2844
sI2856
VkAnAkonA
p2845
sI2857
VkAnUna
p2846
sI2858
VkAnapura
p2847
sI2859
VkArbeta
p2848
sI2860
VkArda
p2849
sI2861
VkAreM
p2850
sI2862
VkArla
p2851
sI2863
VkAroM
p2852
sI2864
VkArobAriyoM
p2853
sI2865
VkAryAlaya
p2854
sI2866
VkAta
p2855
sI2867
VkAvyAwmaka
p2856
sI2868
VkAzgadZA
p2857
sI2869
VkEMpa
p2858
sI2870
VkEPe
p2859
sI2871
VkEmarUna
p2860
sI2872
VkEmare
p2861
sI2873
VkErI
p2862
sI2874
VkErika
p2863
sI2875
VkExa
p2864
sI2876
VkImawoM
p2865
sI2877
VkOSala
p2866
sI2878
VkOYPI
p2867
sI2879
VkOYleja
p2868
sI2880
VkOYma
p2869
sI2881
VkOYmpitiSana
p2870
sI2882
VkOYntekta
p2871
sI2883
VkOYsta
p2872
sI2884
VkOwuhala
p2873
sI2885
VkaMjarveSana
p2874
sI2886
VkaTinAiyoM
p2875
sI2887
VkaTina
p2876
sI2888
Vkacce
p2877
sI2889
VkadZA
p2878
sI2890
VkadZI
p2879
sI2891
VkahAniyAz
p2880
sI2892
VkahAniyoM
p2881
sI2893
Vkaha
p2882
sI2894
VkahalAwA
p2883
sI2895
Vkahe
p2884
sI2896
VkalAkAroM
p2885
sI2897
Vkala
p2886
sI2898
Vkalarsa
p2887
sI2899
Vkalcarala
p2888
sI2900
VkanaParma
p2889
sI2901
VkarAnA
p2890
sI2902
VkaravAI
p2891
sI2903
VkaravAegA
p2892
sI2904
VkaravAnA
p2893
sI2905
VkaravAnI
p2894
sI2906
VkaravAwe
p2895
sI2907
Vkariyara
p2896
sI2908
VkasInoja
p2897
sI2909
VkasbA
p2898
sI2910
Vkasbe
p2899
sI2911
Vkastamara
p2900
sI2912
VkatI
p2901
sI2913
VkatarA
p2902
sI2914
Vkate
p2903
sI2915
VkatorI
p2904
sI2916
VkavarawwI
p2905
sI2917
VkaviyoM
p2906
sI2918
VkawAra
p2907
sI2919
VkeMxrIya
p2908
sI2920
Vkeka
p2909
sI2921
Vkela
p2910
sI2922
Vkele
p2911
sI2923
Vkeyara
p2912
sI2924
Vkilo
p2913
sI2925
VkinnOra
p2914
sI2926
Vkinwu
p2915
sI2927
VkirAyA
p2916
sI2928
Vkisse
p2917
sI2929
VkiwAboM
p2918
sI2930
Vkiwane
p2919
sI2931
Vklika
p2920
sI2932
VkolakAwA
p2921
sI2933
Vkorta
p2922
sI2934
VkoyambatUra
p2923
sI2935
Vkqwi
p2924
sI2936
VkrAPta
p2925
sI2937
VkrIdZA
p2926
sI2938
VkrIma
p2927
sI2939
Vkrama
p2928
sI2940
VkuAlAlaMpura
p2929
sI2941
VkuMDAra
p2930
sI2942
VkuParI
p2931
sI2943
VkuSala
p2932
sI2944
Vkuka
p2933
sI2945
Vkulavuda
p2934
sI2946
Vkullu
p2935
sI2947
VkuxarawI
p2936
sI2948
VkvIna
p2937
sI2949
VlABa
p2938
sI2950
VlAKoM
p2939
sI2951
VlAhOla
p2940
sI2952
VlAlagaDZa
p2941
sI2953
VlAmAoM
p2942
sI2954
VlEMda
p2943
sI2955
VlEMdiMga
p2944
sI2956
VlEMgveja
p2945
sI2957
VlOYja
p2946
sI2958
VladZakI
p2947
sI2959
VladZakiyoM
p2948
sI2960
VlagAne
p2949
sI2961
VlagAva
p2950
sI2962
VlagAyA
p2951
sI2963
Vlageja
p2952
sI2964
Vlagjara
p2953
sI2965
VlajIja
p2954
sI2966
VlakI
p2955
sI2967
VlakRaNa
p2956
sI2968
VlakRmI
p2957
sI2969
Vlalaka
p2958
sI2970
VleKakoM
p2959
sI2971
VleKana
p2960
sI2972
VlePta
p2961
sI2973
VlenI
p2962
sI2974
Vletesta
p2963
sI2975
VlewA
p2964
sI2976
VlewI
p2965
sI2977
Vleyara
p2966
sI2978
VliKiwa
p2967
sI2979
VlihAja
p2968
sI2980
VloSana
p2969
sI2981
VlokeSaMsa
p2970
sI2982
VluBAvanA
p2971
sI2983
VmAI
p2972
sI2984
VmAha
p2973
sI2985
VmAlanA
p2974
sI2986
VmAlikoM
p2975
sI2987
VmAnI
p2976
sI2988
VmAnane
p2977
sI2989
VmArane
p2978
sI2990
VmArketiMga
p2979
sI2991
VmArkita
p2980
sI2992
VmArksa
p2981
sI2993
VmAulina
p2982
sI2994
VmAuntena
p2983
sI2995
VmEMgalora
p2984
sI2996
VmEmoriyala
p2985
sI2997
VmEpa
p2986
sI2998
VmExAnI
p2987
sI2999
VmI
p2988
sI3000
VmI.
p2989
sI3001
VmInAreM
p2990
sI3002
VmIsA
p2991
sI3003
VmIta
p2992
sI3004
VmOYnestrI
p2993
sI3005
VmOYriSasa
p2994
sI3006
VmOja
p2995
sI3007
VmOwa
p2996
sI3008
VmUlya
p2997
sI3009
VmaMgAyA
p2998
sI3010
VmaMjUrI
p2999
sI3011
VmaMjara
p3000
sI3012
VmaMxAkinI
p3001
sI3013
VmaNdI
p3002
sI3014
VmaSIna
p3003
sI3015
VmaXyakAlIna
p3004
sI3016
VmacCaliyoM
p3005
sI3017
Vmagara
p3006
sI3018
VmagaramacCa
p3007
sI3019
VmahAkAvya
p3008
sI3020
VmahAkAvyoM
p3009
sI3021
VmahArARtra
p3010
sI3022
VmahArAnI
p3011
sI3023
VmahawvAkAMkRI
p3012
sI3024
Vmahawwva
p3013
sI3025
VmajabUra
p3014
sI3026
VmajabUwa
p3015
sI3027
VmakabarA
p3016
sI3028
Vmakabare
p3017
sI3029
VmakabaroM
p3018
sI3030
Vmanoja
p3019
sI3031
VmaradekA
p3020
sI3032
Vmariyama
p3021
sI3033
Vmasale
p3022
sI3034
Vmasjixa
p3023
sI3035
Vmawa
p3024
sI3036
VmaxInA
p3025
sI3037
Vme
p3026
sI3038
Vmedana
p3027
sI3039
Vmedisinala
p3028
sI3040
VmediteSana
p3029
sI3041
VmehamAna
p3030
sI3042
VmehawAba
p3031
sI3043
Vmekaapa
p3032
sI3044
VmeloM
p3033
sI3045
Vmena
p3034
sI3046
Vmetro
p3035
sI3047
VmiSraNa
p3036
sI3048
VmijAja
p3037
sI3049
VmilI
p3038
sI3050
Vmilakara
p3039
sI3051
Vmiwra
p3040
sI3052
Vmola
p3041
sI3053
VmonoliWika
p3042
sI3054
Vmorakko
p3043
sI3055
Vmote
p3044
sI3056
VmuInuxxIna
p3045
sI3057
Vmuhima
p3046
sI3058
VmukAbalA
p3047
sI3059
VmukAma
p3048
sI3060
VmusAPiroM
p3049
sI3061
VmusIbawa
p3050
sI3062
VmuxrA
p3051
sI3063
VmyAMmAra
p3052
sI3064
VmyUjZiyama
p3053
sI3065
VmyUjikala
p3054
sI3066
VnAcane
p3055
sI3067
VnAgAlEMda
p3056
sI3068
VnAgOra
p3057
sI3069
VnAgapura
p3058
sI3070
VnAhana
p3059
sI3071
VnAlaxeharA
p3060
sI3072
VnAmI
p3061
sI3073
VnAnasa
p3062
sI3074
VnArakaMdA
p3063
sI3075
VnAwe
p3064
sI3076
VnEnI
p3065
sI3077
VnIwi
p3066
sI3078
VnOYrmala
p3067
sI3079
VnaMxA
p3068
sI3080
VnaMxAxevI
p3069
sI3081
VnagarI
p3070
sI3082
VnajZArA
p3071
sI3083
VnakkASI
p3072
sI3084
VnakkASIxAra
p3073
sI3085
VnamUne
p3074
sI3086
Vnamaka
p3075
sI3087
Vnarvasa
p3076
sI3088
VnavAjA
p3077
sI3089
VnawIjA
p3078
sI3090
VnevI
p3079
sI3091
VnewAoM
p3080
sI3092
VniSAna
p3081
sI3093
VniSciMwa
p3082
sI3094
Vnicale
p3083
sI3095
VnigrA
p3084
sI3096
VnijZAma
p3085
sI3097
VnikAla
p3086
sI3098
Vnikalakara
p3087
sI3099
Vnikale
p3088
sI3100
VnikatavarwI
p3089
sI3101
Vnikatawama
p3090
sI3102
Vnimna
p3091
sI3103
VnivAsI
p3092
sI3104
VniveSa
p3093
sI3105
Vnota
p3094
sI3106
Vnqwya
p3095
sI3107
Vnuha
p3096
sI3108
VnyUditI
p3097
sI3109
VnyUjIlEMda
p3098
sI3110
VnyUjarsI
p3099
sI3111
Volda
p3100
sI3112
VpAMdavoM
p3101
sI3113
VpAMde
p3102
sI3114
VpAeM
p3103
sI3115
VpAegA
p3104
sI3116
VpAkiswAna
p3105
sI3117
VpAlamapura
p3106
sI3118
VpAma
p3107
sI3119
VpAramparika
p3108
sI3120
VpArksa
p3109
sI3121
VpArtiyoM
p3110
sI3122
VpAswA
p3111
sI3123
VpAvana
p3112
sI3124
VpAvara
p3113
sI3125
VpEka
p3114
sI3126
VpEkija
p3115
sI3127
VpEsiMjarsa
p3116
sI3128
VpIseja
p3117
sI3129
VpOXoM
p3118
sI3130
VpOYliSa
p3119
sI3131
VpOYlisI
p3120
sI3132
VpOYlisIja
p3121
sI3133
VpOYnte
p3122
sI3134
VpOYpyulara
p3123
sI3135
VpUrNimA
p3124
sI3136
VpUrvaja
p3125
sI3137
VpaDZAI
p3126
sI3138
Vpaba
p3127
sI3139
VpadZane
p3128
sI3140
VpahacAna
p3129
sI3141
VpahanA
p3130
sI3142
Vpahanane
p3131
sI3143
Vpahane
p3132
sI3144
VpahuMcAne
p3133
sI3145
VpahuMcAwA
p3134
sI3146
VpakadZa
p3135
sI3147
VpakadZanI
p3136
sI3148
VpakadZe
p3137
sI3149
Vpalaka
p3138
sI3150
Vparamita
p3139
sI3151
Vparanwu
p3140
sI3152
Vpare
p3141
sI3153
VpareSAniyoM
p3142
sI3154
VpariBARA
p3143
sI3155
VpariXAna
p3144
sI3156
Vparicaya
p3145
sI3157
Vparikalpiwa
p3146
sI3158
VparipUrNa
p3147
sI3159
VparirakRiwa
p3148
sI3160
Vparsenta
p3149
sI3161
VparvawIya
p3150
sI3162
Vpasanxa
p3151
sI3163
Vpawi
p3152
sI3164
VpawnI
p3153
sI3165
VpaxminI
p3154
sI3166
Vpe
p3155
sI3167
VpeSakaSa
p3156
sI3168
VpenAMga
p3157
sI3169
Vpepara
p3158
sI3170
VperiyAra
p3159
sI3171
Vpetrola
p3160
sI3172
VpetronAsa
p3161
sI3173
VpiMparI
p3162
sI3174
VpijjA
p3163
sI3175
VpiwA
p3164
sI3176
VplAstika
p3165
sI3177
VplEtaPOYrma
p3166
sI3178
VpontA
p3167
sI3179
VprApwi
p3168
sI3180
VprAyaH
p3169
sI3181
VprIPara
p3170
sI3182
VprOYdakta
p3171
sI3183
VprUPa
p3172
sI3184
VpraKyAwa
p3173
sI3185
VpraPeSanalsa
p3174
sI3186
VprabaMXa
p3175
sI3187
VprabaMXana
p3176
sI3188
VpracAra
p3177
sI3189
VpracaNda
p3178
sI3190
VprakASiwa
p3179
sI3191
VprasAra
p3180
sI3192
VprawIwa
p3181
sI3193
VprawiRTiwa
p3182
sI3194
Vprawixina
p3183
sI3195
VpraxarSana
p3184
sI3196
VprayAsoM
p3185
sI3197
VpregneMsI
p3186
sI3198
VpregneMta
p3187
sI3199
VpremI
p3188
sI3200
Vpreriwa
p3189
sI3201
VpresideMta
p3190
sI3202
VpriPara
p3191
sI3203
VprogrAma
p3192
sI3204
VprogrEma
p3193
sI3205
VprogrEmsa
p3194
sI3206
VpuKwA
p3195
sI3207
VpurANoM
p3196
sI3208
VpurwagAlI
p3197
sI3209
VpurwagAliyoM
p3198
sI3210
VpurwagAloM
p3199
sI3211
VqRi
p3200
sI3212
VqRikeSa
p3201
sI3213
VqcA
p3202
sI3214
VrARtra
p3203
sI3215
VrAXAnagara
p3204
sI3216
VrAiPalsa
p3205
sI3217
VrAida
p3206
sI3218
VrAidsa
p3207
sI3219
VrAjaSAhI
p3208
sI3220
VrAjakIya
p3209
sI3221
VrAjanEwika
p3210
sI3222
VrAjapUwa
p3211
sI3223
VrAnIKewa
p3212
sI3224
VrAsa
p3213
sI3225
VrAvaNa
p3214
sI3226
VrElI
p3215
sI3227
VrIda
p3216
sI3228
VrOYka
p3217
sI3229
VrUbarU
p3218
sI3230
VrUcikara
p3219
sI3231
VrUtoM
p3220
sI3232
VrUtsa
p3221
sI3233
VraKawA
p3222
sI3234
VraMgapattama
p3223
sI3235
VraSka
p3224
sI3236
VrahIM
p3225
sI3237
VraheMgI
p3226
sI3238
VrajistreSana
p3227
sI3239
Vrawna
p3228
sI3240
VreMja
p3229
sI3241
VrenukA
p3230
sI3242
Vresa
p3231
sI3243
VrestahAusa
p3232
sI3244
Vreta
p3233
sI3245
Vrewa
p3234
sI3246
VrikavarI
p3235
sI3247
VriyAjZa
p3236
sI3248
VrohawagI
p3237
sI3249
Vrohiwa
p3238
sI3250
Vrokane
p3239
sI3251
Vruka
p3240
sI3252
Vrukakara
p3241
sI3253
Vrutsa
p3242
sI3254
VsAXAraNa
p3243
sI3255
VsAbiwa
p3244
sI3256
VsAdZiyoM
p3245
sI3257
VsAjo
p3246
sI3258
VsAkAra
p3247
sI3259
VsAkRarawA
p3248
sI3260
VsAkRya
p3249
sI3261
VsAmAnya
p3250
sI3262
VsAmAnyawaH
p3251
sI3263
VsAmagrI
p3252
sI3264
VsAmarika
p3253
sI3265
VsAmrAjya
p3254
sI3266
VsAuMda
p3255
sI3267
VsAvana
p3256
sI3268
VsEma
p3257
sI3269
VsEnikoM
p3258
sI3270
VsEragAha
p3259
sI3271
VsIDZiyAM
p3260
sI3272
VsIDZiyoM
p3261
sI3273
VsIKane
p3262
sI3274
VsIXA
p3263
sI3275
VsImAoM
p3264
sI3276
VsIpoM
p3265
sI3277
VsOxA
p3266
sI3278
VsPatika
p3267
sI3279
VsUPI
p3268
sI3280
VsUcanA
p3269
sI3281
VsUja
p3270
sI3282
VsUrya
p3271
sI3283
VsUryoxaya
p3272
sI3284
VsUta
p3273
sI3285
VsUtakesa
p3274
sI3286
VsUwI
p3275
sI3287
VsUwroM
p3276
sI3288
VsWiwiyoM
p3277
sI3289
VsaMbaMXI
p3278
sI3290
VsaMgraha
p3279
sI3291
VsaMkIrNa
p3280
sI3292
VsaMkata
p3281
sI3293
VsaMpaxA
p3282
sI3294
VsaMrakRiwa
p3283
sI3295
VsaMskqwiyoM
p3284
sI3296
VsaMvqxXa
p3285
sI3297
VsaMwulana
p3286
sI3298
VsaMyukwa
p3287
sI3299
VsaPAI
p3288
sI3300
VsaPAriyAz
p3289
sI3301
VsaSakwa
p3290
sI3302
VsabUwa
p3291
sI3303
Vsaciva
p3292
sI3304
VsahAre
p3293
sI3305
Vsaheje
p3294
sI3306
VsajI
p3295
sI3307
VsajIvawA
p3296
sI3308
VsakUMgA
p3297
sI3309
VsakegI
p3298
sI3310
VsalAma
p3299
sI3311
VsalAxa
p3300
sI3312
VsamIpa
p3301
sI3313
VsamIpasWa
p3302
sI3314
VsammAniwa
p3303
sI3315
Vsampanna
p3304
sI3316
VsanabAWiMga
p3305
sI3317
VsapAte
p3306
sI3318
VsapanoM
p3307
sI3319
VsarakAroM
p3308
sI3320
Vsarala
p3309
sI3321
VsarkuleSana
p3310
sI3322
Vsarva
p3311
sI3323
Vsarxa
p3312
sI3324
VsaswA
p3313
sI3325
VsaswI
p3314
sI3326
VsavA
p3315
sI3327
VsavAI
p3316
sI3328
Vsawyama
p3317
sI3329
VsaxAbahAra
p3318
sI3330
VseMsuasa
p3319
sI3331
VseMtrala
p3320
sI3332
Vsektara
p3321
sI3333
VselibreSana
p3322
sI3334
Vselsa
p3323
sI3335
Vselyulara
p3324
sI3336
VsenAnI
p3325
sI3337
VsenAniyoM
p3326
sI3338
VsikyuritI
p3327
sI3339
VsilvA
p3328
sI3340
VsiramOra
p3329
sI3341
VsivAya
p3330
sI3342
VsiwAra
p3331
sI3343
Vsiwambara
p3332
sI3344
VsixXa
p3333
sI3345
VskAI
p3334
sI3346
Vskina
p3335
sI3347
VskrIna
p3336
sI3348
VslAidsa
p3337
sI3349
Vsmqwi
p3338
sI3350
VsnAna
p3339
sI3351
VsnOYrkaliMga
p3340
sI3352
VsnOYrkliMga
p3341
sI3353
Vsno
p3342
sI3354
Vsoca
p3343
sI3355
Vsoe
p3344
sI3356
Vsoka
p3345
sI3357
Vsorento
p3346
sI3358
VspAisa
p3347
sI3359
VspOYrtsa
p3348
sI3360
Vspesa
p3349
sI3361
VstIyariMga
p3350
sI3362
VsteSaMsa
p3351
sI3363
VsteSanoM
p3352
sI3364
Vstona
p3353
sI3365
Vstrakcara
p3354
sI3366
VsuBARa
p3355
sI3367
VsuMxarAnI
p3356
sI3368
VsuWare
p3357
sI3369
VsunAI
p3358
sI3370
Vsuna
p3359
sI3371
VsunxarawA
p3360
sI3372
VsurKiyoM
p3361
sI3373
VsuswI
p3362
sI3374
VsuviXAjanaka
p3363
sI3375
VsuxUra
p3364
sI3376
VsvAgawa
p3365
sI3377
VsvarUpa
p3366
sI3378
VsvargIya
p3367
sI3379
VsvitjaralEMda
p3368
sI3380
VswUpoM
p3369
sI3381
VswaMBa
p3370
sI3382
VtAtA
p3371
sI3383
VtAyara
p3372
sI3384
VtEriPa
p3373
sI3385
VtIloM
p3374
sI3386
VtOYya
p3375
sI3387
VtUrijZama
p3376
sI3388
VtaMkI
p3377
sI3389
Vtarma
p3378
sI3390
Vtarminala
p3379
sI3391
VtiharI
p3380
sI3392
VtrAI
p3381
sI3393
VtrAMjita
p3382
sI3394
VtrEksa
p3383
sI3395
VtrEvalsa
p3384
sI3396
VtrI
p3385
sI3397
VtradiSaMsa
p3386
sI3398
VtrekaroM
p3387
sI3399
VtreneM
p3388
sI3400
VtukadZA
p3389
sI3401
VtukadZe
p3390
sI3402
VuTAnA
p3391
sI3403
VuXamapura
p3392
sI3404
Vubara
p3393
sI3405
VudZAnoM
p3394
sI3406
Vumasa
p3395
sI3407
VupAXi
p3396
sI3408
VupahAra
p3397
sI3409
VupajAU
p3398
sI3410
Vupayukwa
p3399
sI3411
Vursa
p3400
sI3412
VusameM
p3401
sI3413
Vusware
p3402
sI3414
VuwanI
p3403
sI3415
VuwsAhI
p3404
sI3416
VuwsAhiwa
p3405
sI3417
VuxAsI
p3406
sI3418
Vuxayapura
p3407
sI3419
VvAhana
p3408
sI3420
VvAhanoM
p3409
sI3421
VvAikiMga
p3410
sI3422
VvAipara
p3411
sI3423
VvAisa
p3412
sI3424
VvApasI
p3413
sI3425
VvAxA
p3414
sI3426
VvAyu
p3415
sI3427
VvEjFAnika
p3416
sI3428
VvEsA
p3417
sI3429
VvEsI
p3418
sI3430
VvOYcatAvara
p3419
sI3431
VvOYriyara
p3420
sI3432
VvanoM
p3421
sI3433
VvanyajIvana
p3422
sI3434
VvarNana
p3423
sI3435
VvarRA
p3424
sI3436
VvarRoM
p3425
sI3437
VvebasAita
p3426
sI3438
VvexoM
p3427
sI3439
VviBAsa
p3428
sI3440
VviBURiwa
p3429
sI3441
VviMdo
p3430
sI3442
VviRNu
p3431
sI3443
VviSvayuxXa
p3432
sI3444
VvihAroM
p3433
sI3445
Vvijaya
p3434
sI3446
Vvijitarsa
p3435
sI3447
VvilakRaNa
p3436
sI3448
VvilupwaprAyaH
p3437
sI3449
VvinyAsoM
p3438
sI3450
VviwwIya
p3439
sI3451
VvqnxAvana
p3440
sI3452
VvyApaka
p3441
sI3453
VvyaMjanoM
p3442
sI3454
VvyakwiyoM
p3443
sI3455
Vvyaswa
p3444
sI3456
VvyavahAra
p3445
sI3457
VwAhiwi
p3446
sI3458
VwAje
p3447
sI3459
VwAxAxa
p3448
sI3460
VwEnAwI
p3449
sI3461
VwErAkI
p3450
sI3462
VwEyArI
p3451
sI3463
VwEyAriyAM
p3452
sI3464
VwIrWAtana
p3453
sI3465
VwIrWarAja
p3454
sI3466
VwIwara
p3455
sI3467
VwaMga
p3456
sI3468
VwaWya
p3457
sI3469
VwabxIla
p3458
sI3470
VwarIkoM
p3459
sI3471
VweMxuA
p3460
sI3472
VweMxue
p3461
sI3473
VwihAI
p3462
sI3474
VwiwaliyoM
p3463
sI3475
VwodZakara
p3464
sI3476
VwroMgsA
p3465
sI3477
VwuraMwa
p3466
sI3478
VxArA
p3467
sI3479
VxAvA
p3468
sI3480
VxAyare
p3469
sI3481
VxEwyAkAra
p3470
sI3482
VxIvAnoM
p3471
sI3483
VxIxAra
p3472
sI3484
VxaSaka
p3473
sI3485
VxaSakoM
p3474
sI3486
VxalaxalI
p3475
sI3487
VxarjA
p3476
sI3488
Vxarre
p3477
sI3489
VxeKaBAla
p3478
sI3490
VxeharAxUna
p3479
sI3491
VxevagaDZa
p3480
sI3492
VxevasvAma
p3481
sI3493
VxiKA
p3482
sI3494
VxiKAegA
p3483
sI3495
VxiKAwI
p3484
sI3496
VxiKAyA
p3485
sI3497
VxiKIM
p3486
sI3498
VxilakaSa
p3487
sI3499
VxoswAnA
p3488
sI3500
VxruwagAmI
p3489
sI3501
VxubaI
p3490
sI3502
VxukAna
p3491
sI3503
VxukAneM
p3492
sI3504
VxumaxamA
p3493
sI3505
VxviwIya
p3494
sI3506
VyUpI
p3495
sI3507
VyUropIya
p3496
sI3508
VyaMga
p3497
sI3509
VyakRI
p3498
sI3510
Vyaxyapi
p3499
sI3511
Vyogya
p3500
sI3512
VyuMgaPrAU
p3501
sI3513
VyuvA
p3502
sI3514
V/
sI3515
V0
sI3516
V07
p3503
sI3517
V1,829
p3504
sI3518
V1.39
p3505
sI3519
V10000
p3506
sI3520
V1065
p3507
sI3521
V107
p3508
sI3522
V112
p3509
sI3523
V114
p3510
sI3524
V116
p3511
sI3525
V117
p3512
sI3526
V1174
p3513
sI3527
V119
p3514
sI3528
V1200
p3515
sI3529
V123
p3516
sI3530
V1260
p3517
sI3531
V13,000
p3518
sI3532
V13,700
p3519
sI3533
V1343
p3520
sI3534
V140
p3521
sI3535
V145
p3522
sI3536
V147
p3523
sI3537
V1478
p3524
sI3538
V1537
p3525
sI3539
V1583
p3526
sI3540
V1588
p3527
sI3541
V1593
p3528
sI3542
V15vIM
p3529
sI3543
V1627
p3530
sI3544
V1648
p3531
sI3545
V1706
p3532
sI3546
V176
p3533
sI3547
V1773
p3534
sI3548
V1783
p3535
sI3549
V1788
p3536
sI3550
V1791
p3537
sI3551
V1798
p3538
sI3552
V17vIM
p3539
sI3553
V180
p3540
sI3554
V1800
p3541
sI3555
V1806
p3542
sI3556
V1809
p3543
sI3557
V1810
p3544
sI3558
V1815
p3545
sI3559
V1822
p3546
sI3560
V1829
p3547
sI3561
V1840
p3548
sI3562
V1844
p3549
sI3563
V185
p3550
sI3564
V1857
p3551
sI3565
V1864
p3552
sI3566
V1868
p3553
sI3567
V187
p3554
sI3568
V1883
p3555
sI3569
V1887
p3556
sI3570
V1893
p3557
sI3571
V1897
p3558
sI3572
V1898
p3559
sI3573
V19
p3560
sI3574
V1906
p3561
sI3575
V1935
p3562
sI3576
V1940
p3563
sI3577
V1955
p3564
sI3578
V1957
p3565
sI3579
V1959
p3566
sI3580
V1962
p3567
sI3581
V1971
p3568
sI3582
V1972
p3569
sI3583
V1980
p3570
sI3584
V1983
p3571
sI3585
V1987
p3572
sI3586
V1995
p3573
sI3587
V1997
p3574
sI3588
V1999
p3575
sI3589
V20,000
p3576
sI3590
V2001
p3577
sI3591
V2006
p3578
sI3592
V2007
p3579
sI3593
V2008
p3580
sI3594
V2010
p3581
sI3595
V2030
p3582
sI3596
V20vIM
p3583
sI3597
V2135
p3584
sI3598
V2190
p3585
sI3599
V225
p3586
sI3600
V2300
p3587
sI3601
V2611
p3588
sI3602
V262
p3589
sI3603
V272
p3590
sI3604
V2750
p3591
sI3605
V28
p3592
sI3606
V3,000
p3593
sI3607
V300
p3594
sI3608
V305
p3595
sI3609
V31
p3596
sI3610
V3100
p3597
sI3611
V33
p3598
sI3612
V3355
p3599
sI3613
V34
p3600
sI3614
V3454
p3601
sI3615
V3541
p3602
sI3616
V3660
p3603
sI3617
V370
p3604
sI3618
V3840
p3605
sI3619
V4,000
p3606
sI3620
V4,990
p3607
sI3621
V4000
p3608
sI3622
V41
p3609
sI3623
V4114
p3610
sI3624
V4135
p3611
sI3625
V41vIM
p3612
sI3626
V421
p3613
sI3627
V44
p3614
sI3628
V45
p3615
sI3629
V4511
p3616
sI3630
V459
p3617
sI3631
V49
p3618
sI3632
V4900
p3619
sI3633
V500000
p3620
sI3634
V52.2
p3621
sI3635
V53
p3622
sI3636
V5456
p3623
sI3637
V5500
p3624
sI3638
V5590
p3625
sI3639
V572
p3626
sI3640
V6000
p3627
sI3641
V62
p3628
sI3642
V700
p3629
sI3643
V75
p3630
sI3644
V79
p3631
sI3645
V80
p3632
sI3646
V900
p3633
sI3647
V920
p3634
sI3648
V95
p3635
sI3649
V99
p3636
sI3650
V@
sI3651
VABAra
p3637
sI3652
VAIM
p3638
sI3653
VAIlEMdsa
p3639
sI3654
VAIpOYda
p3640
sI3655
VAItI
p3641
sI3656
VAKarI
p3642
sI3657
VAKirakAra
p3643
sI3658
VAMKeM
p3644
sI3659
VAMgana
p3645
sI3660
VAMwarika
p3646
sI3661
VAMxolana
p3647
sI3662
VAPiSiyala
p3648
sI3663
VASAoM
p3649
sI3664
VAScarya
p3650
sI3665
VAScaryajanaka
p3651
sI3666
VASccaryoM
p3652
sI3667
VASraya
p3653
sI3668
VASvAsana
p3654
sI3669
VATavAM
p3655
sI3670
VAWirka
p3656
sI3671
VAXikAMSa
p3657
sI3672
VAXikArika
p3658
sI3673
VAXunikIkaraNa
p3659
sI3674
VAXyAwmika
p3660
sI3675
VAbI
p3661
sI3676
VAcaraNa
p3662
sI3677
VAdZe
p3663
sI3678
VAgaMwuko
p3664
sI3679
VAgaMwukoM
p3665
sI3680
VAgamana
p3666
sI3681
VAgare
p3667
sI3682
VAgraha
p3668
sI3683
VAie
p3669
sI3684
VAiemaePa
p3670
sI3685
VAileNda
p3671
sI3686
VAitama
p3672
sI3687
VAitamsa
p3673
sI3688
VAjIvana
p3674
sI3689
VAjamA
p3675
sI3690
VAjivikA
p3676
sI3691
VAlApane
p3677
sI3692
VAlU
p3678
sI3693
VAla
p3679
sI3694
VAloka
p3680
sI3695
VAmanwriwa
p3681
sI3696
VAnaMxapraxa
p3682
sI3697
VAnaMxaxAyaka
p3683
sI3698
VAnanxapraxA
p3684
sI3699
VAnanxapraxa
p3685
sI3700
VAnanxaxAyaka
p3686
sI3701
VAnxolana
p3687
sI3702
VArSIvAxa
p3688
sI3703
VArakRaNa
p3689
sI3704
VAramBa
p3690
sI3705
VArkitEkta
p3691
sI3706
VArkitakcara
p3692
sI3707
VArkitekcara
p3693
sI3708
VArkitekcarala
p3694
sI3709
VAroha
p3695
sI3710
VArohaNoM
p3696
sI3711
VAropI
p3697
sI3712
VArya
p3698
sI3713
VAsWA
p3699
sI3714
VAsWAoM
p3700
sI3715
VAsana
p3701
sI3716
VAutabAuMda
p3702
sI3717
VAvAjAhI
p3703
sI3718
VAvaraNa
p3704
sI3719
VAvarwana
p3705
sI3720
VAvegI
p3706
sI3721
VAvexana
p3707
sI3722
VAvirBAva
p3708
sI3723
VAwaMka
p3709
sI3724
VAwaMkavAxa
p3710
sI3725
VAwiSabAjI
p3711
sI3726
VAwiWya
p3712
sI3727
VAwmaviSvAsa
p3713
sI3728
VAwmika
p3714
sI3729
VAxamaKora
p3715
sI3730
VAxamakaxa
p3716
sI3731
VAxarSa
p3717
sI3732
VAxawa
p3718
sI3733
VAxivAsIya
p3719
sI3734
VAxivAsiyoM
p3720
sI3735
VAxyAwmika
p3721
sI3736
VAyAwa
p3722
sI3737
VBAI
p3723
sI3738
VBAMwI
p3724
sI3739
VBARAoM
p3725
sI3740
VBAgIraWI
p3726
sI3741
VBAgoM
p3727
sI3742
VBAlU
p3728
sI3743
VBArawavarRa
p3729
sI3744
VBAtiyA
p3730
sI3745
VBAvABivyakwi
p3731
sI3746
VBAvanAez
p3732
sI3747
VBAwi
p3733
sI3748
VBAzwi
p3734
sI3749
VBIdZaBAdZa
p3735
sI3750
VBIgA
p3736
sI3751
VBIma
p3737
sI3752
VBUBAga
p3738
sI3753
VBUkaMpa
p3739
sI3754
VBUlane
p3740
sI3755
VBUmigawa
p3741
sI3756
VBUmikA
p3742
sI3757
VBUmikAez
p3743
sI3758
VBUwapUrva
p3744
sI3759
VBaNdZAra
p3745
sI3760
VBagasUnAWa
p3746
sI3761
VBakwa
p3747
sI3762
VBalI
p3748
sI3763
VBalIBAMwi
p3749
sI3764
VBaramOra
p3750
sI3765
VBarawa
p3751
sI3766
VBarawe
p3752
sI3767
VBarose
p3753
sI3768
VBarwI
p3754
sI3769
VBataka
p3755
sI3770
VBatakanA
p3756
sI3771
VBatakane
p3757
sI3772
VBavAna
p3758
sI3773
VBava
p3759
sI3774
VBedZiye
p3760
sI3775
VBeja
p3761
sI3776
VBejeM
p3762
sI3777
VBesama
p3763
sI3778
VBexoM
p3764
sI3779
VBikRu
p3765
sI3780
VBikRuka
p3766
sI3781
VBiwwIya
p3767
sI3782
VBogA
p3768
sI3783
VBojanAlayoM
p3769
sI3784
VBopAla
p3770
sI3785
VBulAkara
p3771
sI3786
VBullA
p3772
sI3787
VBunA
p3773
sI3788
VCAI
p3774
sI3789
VCAne
p3775
sI3790
VCApane
p3776
sI3791
VCAvanI
p3777
sI3792
VCAveM
p3778
sI3793
VCAwA
p3779
sI3794
VCAyA
p3780
sI3795
VCAyAxAra
p3781
sI3796
VCAye
p3782
sI3797
VCAzva
p3783
sI3798
VCIlakara
p3784
sI3799
VCInA
p3785
sI3800
VCUne
p3786
sI3801
VCUtA
p3787
sI3802
VCUta
p3788
sI3803
VCUtane
p3789
sI3804
VCUwA
p3790
sI3805
VCa
p3791
sI3806
VCaMtanI
p3792
sI3807
VCawarInumA
p3793
sI3808
VCawoM
p3794
sI3809
VCawrapawi
p3795
sI3810
VCedZa
p3796
sI3811
VCerI
p3797
sI3812
VCiCale
p3798
sI3813
VCipI
p3799
sI3814
VCipawe
p3800
sI3815
VCodZI
p3801
sI3816
VCoje
p3802
sI3817
VCupe
p3803
sI3818
VCutti
p3804
sI3819
VDAMcA
p3805
sI3820
VDAMce
p3806
sI3821
VDAbA
p3807
sI3822
VDAbe
p3808
sI3823
VDAboM
p3809
sI3824
VDAla
p3810
sI3825
VDIle
p3811
sI3826
VDUMDA
p3812
sI3827
VDUMDa
p3813
sI3828
VDaMga
p3814
sI3829
VDaka
p3815
sI3830
VDalAna
p3816
sI3831
VDalane
p3817
sI3832
VDale
p3818
sI3833
VDera
p3819
sI3834
VDulAI
p3820
sI3835
VEMgala
p3821
sI3836
VESiyA
p3822
sI3837
VEktiva
p3823
sI3838
VEktivitIjZa
p3824
sI3839
VElabarta
p3825
sI3840
VEliPZeMtA
p3826
sI3841
VEliPeMta
p3827
sI3842
VEmsatardama
p3828
sI3843
VGAnA
p3829
sI3844
VGUMtI
p3830
sI3845
VGUmA
p3831
sI3846
VGUmawA
p3832
sI3847
VGaKAra
p3833
sI3848
VGabarA
p3834
sI3849
VGabarAeM
p3835
sI3850
VGabarAhata
p3836
sI3851
VGanA
p3837
sI3852
VGaniRTawA
p3838
sI3853
VGarAne
p3839
sI3854
VGaroM
p3840
sI3855
VGata
p3841
sI3856
VGatanAeM
p3842
sI3857
VGatanAsWala
p3843
sI3858
VGatanI
p3844
sI3859
VGatane
p3845
sI3860
VGategI
p3846
sI3861
VGirane
p3847
sI3862
VGise
p3848
sI3863
VGodZe
p3849
sI3864
VGulI
p3850
sI3865
VGumAvaxAra
p3851
sI3866
VGumAwe
p3852
sI3867
VGummakadZoM
p3853
sI3868
VGusawe
p3854
sI3869
VGutana
p3855
sI3870
VI.
p3856
sI3871
VISvarIya
p3857
sI3872
VIkolOYjikala
p3858
sI3873
VIrRyA
p3859
sI3874
VIsAiyoM
p3860
sI3875
VIsavIM
p3861
sI3876
VIstarna
p3862
sI3877
VIsvIM
p3863
sI3878
VIta
p3864
sI3879
VJAMkane
p3865
sI3880
VJAdZa
p3866
sI3881
VJAzkI
p3867
sI3882
VJAzsI
p3868
sI3883
VJIlA
p3869
sI3884
VJUle
p3870
sI3885
VJUma
p3871
sI3886
VJaMJata
p3872
sI3887
VJaMde
p3873
sI3888
VJadZI
p3874
sI3889
VJagadZe
p3875
sI3890
VJalakawA
p3876
sI3891
VJapakAne
p3877
sI3892
VJapakane
p3878
sI3893
VJaranoM
p3879
sI3894
VJatakA
p3880
sI3895
VJela
p3881
sI3896
VJiJakawe
p3882
sI3897
VJilamilAhata
p3883
sI3898
VJilamilAwe
p3884
sI3899
VJoMka
p3885
sI3900
VJopadiyAM
p3886
sI3901
VJuMJalAhata
p3887
sI3902
VJunsI
p3888
sI3903
VJuraJurI
p3889
sI3904
VKAI
p3890
sI3905
VKAjiyAra
p3891
sI3906
VKAmoSI
p3892
sI3907
VKAsiyawoM
p3893
sI3908
VKAxima
p3894
sI3909
VKIMcA
p3895
sI3910
VKIMca
p3896
sI3911
VKUbI
p3897
sI3912
VKUnI
p3898
sI3913
VKUzKAra
p3899
sI3914
VKZAsa
p3900
sI3915
VKaMboM
p3901
sI3916
VKaMdahara
p3902
sI3917
VKaMdaharoM
p3903
sI3918
VKajAnA
p3904
sI3919
VKajZiyAra
p3905
sI3920
VKajiyAra
p3906
sI3921
VKalIlI
p3907
sI3922
VKalala
p3908
sI3923
VKapadZA
p3909
sI3924
VKarIxArI
p3910
sI3925
VKarIxAxarI
p3911
sI3926
VKarIxawI
p3912
sI3927
VKarIxeM
p3913
sI3928
VKaragoSa
p3914
sI3929
VKarcanA
p3915
sI3930
VKatimA
p3916
sI3931
VKawaranAka
p3917
sI3932
VKawaroM
p3918
sI3933
VKaxAnoM
p3919
sI3934
VKayAla
p3920
sI3935
VKelanA
p3921
sI3936
VKelawA
p3922
sI3937
VKelawe
p3923
sI3938
VKeloM
p3924
sI3939
VKene
p3925
sI3940
VKerApAWara
p3926
sI3941
VKidZakI
p3927
sI3942
VKikasA
p3928
sI3943
VKilAeM
p3929
sI3944
VKilOne
p3930
sI3945
VKila
p3931
sI3946
VKilawI
p3932
sI3947
VKiwAba
p3933
sI3948
VKojA
p3934
sI3949
VKojane
p3935
sI3950
VKokara
p3936
sI3951
VKolakara
p3937
sI3952
VKoleM
p3938
sI3953
VKonA
p3939
sI3954
VKuSanumA
p3940
sI3955
VKuSiyoM
p3941
sI3956
VKukarI
p3942
sI3957
VKulI
p3943
sI3958
VKula
p3944
sI3959
VKulane
p3945
sI3960
VKulavAyA
p3946
sI3961
VKurAka
p3947
sI3962
VKvAjAsAhaba
p3948
sI3963
VKyAwi
p3949
sI3964
VORaXIya
p3950
sI3965
VOYParoM
p3951
sI3966
VOYPisara
p3952
sI3967
VOYPisaroM
p3953
sI3968
VOYPisoM
p3954
sI3969
VOYbjaravetrI
p3955
sI3970
VOYbjarveSana
p3956
sI3971
VOYdiyaMsa
p3957
sI3972
VOYdiyo
p3958
sI3973
VOYila
p3959
sI3974
VOYkirda
p3960
sI3975
VOYksaParda
p3961
sI3976
VOYltityUda
p3962
sI3977
VOYnalAina
p3963
sI3978
VOYparetiMga
p3964
sI3979
VOYrPaneja
p3965
sI3980
VOYraMgAbAxa
p3966
sI3981
VOYramArta
p3967
sI3982
VOYrganAjda
p3968
sI3983
VOYrientala
p3969
sI3984
VOYrta
p3970
sI3985
VOYstrica
p3971
sI3986
VOjZAra
p3972
sI3987
VOpacArikawAez
p3973
sI3988
VOrZa
p3974
sI3989
VOraMgAbAxa
p3975
sI3990
VOsawa
p3976
sI3991
VOsawana
p3977
sI3992
VOta
p3978
sI3993
VPAgU
p3979
sI3994
VPAila
p3980
sI3995
VPAinEMSala
p3981
sI3996
VPAsalA
p3982
sI3997
VPAtaka
p3983
sI3998
VPAuMdeSana
p3984
sI3999
VPAyaxe
p3985
sI4000
VPAyaxemaMxa
p3986
sI4001
VPEMsI
p3987
sI4002
VPEktara
p3988
sI4003
VPEktrIja
p3989
sI4004
VPElAe
p3990
sI4005
VPEla
p3991
sI4006
VPEna
p3992
sI4007
VPEsale
p3993
sI4008
VPIda
p3994
sI4009
VPIdiMga
p3995
sI4010
VPIla
p3996
sI4011
VPIwe
p3997
sI4012
VPOYka
p3998
sI4013
VPOYlo
p3999
sI4014
VPOYloiMga
p4000
sI4015
VPOYra
p4001
sI4016
VPOYrmala
p4002
sI4017
VPOrana
p4003
sI4018
VPUlI
p4004
sI4019
VPUleMge
p4005
sI4020
VPUloM
p4006
sI4021
VPZawehapura
p4007
sI4022
VPaMgala
p4008
sI4023
VPaMkSana
p4009
sI4024
VPaMsa
p4010
sI4025
VPabeMgI
p4011
sI4026
VPaharAyA
p4012
sI4027
VPajZala
p4013
sI4028
VPalI
p4014
sI4029
VPalaka
p4015
sI4030
VPalakanumA
p4016
sI4031
VPalasvarupa
p4017
sI4032
VParja
p4018
sI4033
VParma
p4019
sI4034
VParmeM
p4020
sI4035
VPasaloM
p4021
sI4036
VPasilatI
p4022
sI4037
VPatane
p4023
sI4038
VPate
p4024
sI4039
VPavvAre
p4025
sI4040
VPawehapura
p4026
sI4041
VPeMkane
p4027
sI4042
VPedareSana
p4028
sI4043
VPemasa
p4029
sI4044
VPeminA
p4030
sI4045
VPerabaxala
p4031
sI4046
VPexara
p4032
sI4047
VPijAoM
p4033
sI4048
VPilIpIMsa
p4034
sI4049
VPilmakAroM
p4035
sI4050
VPirAka
p4036
sI4051
VPirawe
p4037
sI4052
VPirojA
p4038
sI4053
VPita
p4039
sI4054
VPlESa
p4040
sI4055
VPlEta
p4041
sI4056
VPlOYpa
p4042
sI4057
VPleksibala
p4043
sI4058
VPlipa
p4044
sI4059
VPlorikana
p4045
sI4060
VPora
p4046
sI4061
VPorsa
p4047
sI4062
VPotogrAParoM
p4048
sI4063
VPotokOYpI
p4049
sI4064
VPrAMsIsiyoM
p4050
sI4065
VPrAida
p4051
sI4066
VPrIdama
p4052
sI4067
VPrUta
p4053
sI4068
VPreMda
p4054
sI4069
VPreSa
p4055
sI4070
VPulke
p4056
sI4071
VPurasawa
p4057
sI4072
VPursawa
p4058
sI4073
VPutabOYla
p4059
sI4074
VPutapriMtsa
p4060
sI4075
VPutaviyarsa
p4061
sI4076
VPyUla
p4062
sI4077
VRTDC
p4063
sI4078
VSAKAeM
p4064
sI4079
VSAKa
p4065
sI4080
VSASvawa
p4066
sI4081
VSAbxika
p4067
sI4082
VSAkunwalama
p4068
sI4083
VSAkyamuni
p4069
sI4084
VSAlinI
p4070
sI4085
VSAmI
p4071
sI4086
VSAmeM
p4072
sI4087
VSAmiyAne
p4073
sI4088
VSAna
p4074
sI4089
VSAnwa
p4075
sI4090
VSArIrika
p4076
sI4091
VSAraxA
p4077
sI4092
VSAsaka
p4078
sI4093
VSAsanakAloM
p4079
sI4094
VSAswra
p4080
sI4095
VSAxI
p4081
sI4096
VSEliyoM
p4082
sI4097
VSISe
p4083
sI4098
VSIwala
p4084
sI4099
VSIwaqwu
p4085
sI4100
VSOYpsa
p4086
sI4101
VSOYta
p4087
sI4102
VSOryA
p4088
sI4103
VSU
p4089
sI4104
VSUtiMga
p4090
sI4105
VSaKsiyawa
p4091
sI4106
VSaMKiyoM
p4092
sI4107
VSahajAxe
p4093
sI4108
VSahaxa
p4094
sI4109
VSaka
p4095
sI4110
VSakwi
p4096
sI4111
VSakwimawI
p4097
sI4112
VSamila
p4098
sI4113
VSana
p4099
sI4114
VSanivAra
p4100
sI4115
VSarIPa
p4101
sI4116
VSarIka
p4102
sI4117
VSaraNa
p4103
sI4118
VSarmanAka
p4104
sI4119
VSarwoM
p4105
sI4120
VSaswroM
p4106
sI4121
VSawAbxiyoM
p4107
sI4122
VSeKa
p4108
sI4123
VSePa
p4109
sI4124
VSeRAMka
p4110
sI4125
VSeRa
p4111
sI4126
VSedyUla
p4112
sI4127
VSerAGAta
p4113
sI4128
VSera
p4114
sI4129
VSeroM
p4115
sI4130
VSikArI
p4116
sI4131
VSikAyaweM
p4117
sI4132
VSilA
p4118
sI4133
VSilaWOYrna
p4119
sI4134
VSilpagrAma
p4120
sI4135
VSilpakAroM
p4121
sI4136
VSivagaMgA
p4122
sI4137
VSivaxAna
p4123
sI4138
VSoBAyAwrA
p4124
sI4139
VSoBAyamAna
p4125
sI4140
VSoja
p4126
sI4141
VSopIsijZa
p4127
sI4142
VSorUma
p4128
sI4143
VSqMKalAoM
p4129
sI4144
VSrAvaswi
p4130
sI4145
VSrImawi
p4131
sI4146
VSraMKalA
p4132
sI4147
VSravaNabelAgolA
p4133
sI4148
VSraxXA
p4134
sI4149
VSrazKalA
p4135
sI4150
VSreNiyoM
p4136
sI4151
VSuBa
p4137
sI4152
VSuRkawA
p4138
sI4153
VSuklA
p4139
sI4154
VSulkoM
p4140
sI4155
VSumAra
p4141
sI4156
VSurUAwa
p4142
sI4157
VSuxXa
p4143
sI4158
VSvasana
p4144
sI4159
VTAkura
p4145
sI4160
VTIkaTAka
p4146
sI4161
VTaMDA
p4147
sI4162
VTaMdA
p4148
sI4163
VTaMde
p4149
sI4164
VTaharAvoM
p4150
sI4165
VTaharUMgA
p4151
sI4166
VTaharakara
p4152
sI4167
VTaharanA
p4153
sI4168
VTaharawe
p4154
sI4169
VTikAnA
p4155
sI4170
VTikAne
p4156
sI4171
VTikAnoM
p4157
sI4172
VUla
p4158
sI4173
VUnI
p4159
sI4174
VUtakamaNda
p4160
sI4175
VUzcAiyAz
p4161
sI4176
VUzcAiyoM
p4162
sI4177
VWAca
p4163
sI4178
VWAnIramukuma
p4164
sI4179
VWImapArka
p4165
sI4180
VWakA
p4166
sI4181
VWakakara
p4167
sI4182
VWake
p4168
sI4183
VWakemAMxe
p4169
sI4184
VWamAI
p4170
sI4185
VWenaWuka
p4171
sI4186
VWerapIja
p4172
sI4187
VWilakkama
p4173
sI4188
VWirakie
p4174
sI4189
VWrila
p4175
sI4190
VWriliMga
p4176
sI4191
VWrombosisa
p4177
sI4192
VWupakA
p4178
sI4193
VXArA
p4179
sI4194
VXAra
p4180
sI4195
VXImI
p4181
sI4196
VXOMkanI
p4182
sI4197
VXOlA
p4183
sI4198
VXOlAXAra
p4184
sI4199
VXOlAXara
p4185
sI4200
VXOlaCInA
p4186
sI4201
VXUmaXAma
p4187
sI4202
VXaje
p4188
sI4203
VXanI
p4189
sI4204
VXana
p4190
sI4205
VXarmA
p4191
sI4206
VXarmAnuRTAna
p4192
sI4207
VXarmagraMWoM
p4193
sI4208
VXarmoM
p4194
sI4209
VXaroharoM
p4195
sI4210
VXoKebAjoM
p4196
sI4211
VXuMXalake
p4197
sI4212
VXuMXale
p4198
sI4213
VXuzXalI
p4199
sI4214
VXvaja
p4200
sI4215
VXvaniyAz
p4201
sI4216
VXvaniyoM
p4202
sI4217
V_/NNPC_
p4203
sI4218
V_/NN_
p4204
sI4219
V_/VAUX_
p4205
sI4220
VaBayavana
p4206
sI4221
VaBigamya
p4207
sI4222
VaBijFAna
p4208
sI4223
VaBileKAgAroM
p4209
sI4224
VaBiliKiwa
p4210
sI4225
VaBinanxana
p4211
sI4226
VaByAraNya
p4212
sI4227
VaByAsa
p4213
sI4228
VaByuxaya
p4214
sI4229
VaCUwe
p4215
sI4230
VaGIkRaka
p4216
sI4231
VaGoRiwa
p4217
sI4232
VaKabAroM
p4218
sI4233
VaMXerA
p4219
sI4234
VaMXere
p4220
sI4235
VaMbara
p4221
sI4236
VaMbikA
p4222
sI4237
VaMdara
p4223
sI4238
VaMdaragrAuMda
p4224
sI4239
VaMgAroM
p4225
sI4240
VaMgUTe
p4226
sI4241
VaMkura
p4227
sI4242
VaMpAyaroM
p4228
sI4243
VaMrwagawa
p4229
sI4244
VaMxarunI
p4230
sI4245
VaParavAwa
p4231
sI4246
VaPordobala
p4232
sI4247
VaPrIkana
p4233
sI4248
VaSikRiwa
p4234
sI4249
VaTaKeliyoM
p4235
sI4250
VaWOYritI
p4236
sI4251
VaWarvavexa
p4237
sI4252
VaXIna
p4238
sI4253
VaXara
p4239
sI4254
VaXikawama
p4240
sI4255
VaXiniyama
p4241
sI4256
VaXivqkkoM
p4242
sI4257
VaXomuKI
p4243
sI4258
VaXyakRa
p4244
sI4259
VabAXiwa
p4245
sI4260
VabI
p4246
sI4261
VabU
p4247
sI4262
Vabula
p4248
sI4263
Vabxula
p4249
sI4264
VacaMBiwa
p4250
sI4265
VaddZA
p4251
sI4266
VaddoM
p4252
sI4267
VagAmI
p4253
sI4268
VagalA
p4254
sI4269
VagamyawA
p4255
sI4270
Vagaswya
p4256
sI4271
VagawwI
p4257
sI4272
Vagni
p4258
sI4273
Vagra
p4259
sI4274
VagrejoM
p4260
sI4275
Vahamiyawa
p4261
sI4276
VahiMsA
p4262
sI4277
VajIba
p4263
sI4278
VajIbogarIba
p4264
sI4279
Vajaba
p4265
sI4280
VajanwA
p4266
sI4281
VakAxamI
p4267
sI4282
VakRaraSaH
p4268
sI4283
VakRayavata
p4269
sI4284
Vakveriama
p4270
sI4285
ValIgaDZa
p4271
sI4286
ValOrA
p4272
sI4287
Vala
p4273
sI4288
ValaMkArika
p4274
sI4289
ValaMkqwa
p4275
sI4290
Valabama
p4276
sI4291
ValakanaMxA
p4277
sI4292
ValamArI
p4278
sI4293
Valamaswa
p4279
sI4294
ValapawWara
p4280
sI4295
Valartanesa
p4281
sI4296
ValasAe
p4282
sI4297
ValavixA
p4283
sI4298
Valgero
p4284
sI4299
Valipe
p4285
sI4300
Valkohalika
p4286
sI4301
Valoyasasa
p4287
sI4302
ValpAvaXi
p4288
sI4303
ValpasaMKyaka
p4289
sI4304
ValtrA
p4290
sI4305
VamIra
p4291
sI4306
VamUmana
p4292
sI4307
Vamala
p4293
sI4308
Vamara
p4294
sI4309
VamarakaWA
p4295
sI4310
Vamediyasa
p4296
sI4311
VamerikI
p4297
sI4312
VamiwABa
p4298
sI4313
Vamiwa
p4299
sI4314
Vamqwasara
p4300
sI4315
VanaCue
p4301
sI4316
VanaMxiwA
p4302
sI4317
VanahonI
p4303
sI4318
VanajAna
p4304
sI4319
Vanamane
p4305
sI4320
Vanamola
p4306
sI4321
Vanavarawa
p4307
sI4322
VandamAna
p4308
sI4323
Vanila
p4309
sI4324
VanivArya
p4310
sI4325
Vaniyamiwa
p4311
sI4326
VanoKe
p4312
sI4327
VanuBUwiyoM
p4313
sI4328
VanuSAsana
p4314
sI4329
VanumAnawaH
p4315
sI4330
Vanupama
p4316
sI4331
VanurAXApurA
p4317
sI4332
VanurUpa
p4318
sI4333
Vanurupa
p4319
sI4334
Vanusariwa
p4320
sI4335
VanveRaNaparaka
p4321
sI4336
Vanwa
p4322
sI4337
VanwaHsWalIya
p4323
sI4338
VanxarUnI
p4324
sI4339
VapOYiMta
p4325
sI4340
VapUrva
p4326
sI4341
Vapagreda
p4327
sI4342
VapanAne
p4328
sI4343
VaparAXa
p4329
sI4344
VaparAXiyoM
p4330
sI4345
VapekRA
p4331
sI4346
VapravAhI
p4332
sI4347
Vaprawima
p4333
sI4348
VarXa
p4334
sI4349
VaraMbolA
p4335
sI4350
VaraWunakala
p4336
sI4351
VaramAna
p4337
sI4352
Varbana
p4338
sI4353
VareMjameMta
p4339
sI4354
VarebiyA
p4340
sI4355
Varjiwa
p4341
sI4356
VarvA
p4342
sI4357
VarxXakumBa
p4343
sI4358
Varxxa
p4344
sI4359
VasAXAraNa
p4345
sI4360
VasAXya
p4346
sI4361
VasImiwa
p4347
sI4362
VasaMKya
p4348
sI4363
VasaPa
p4349
sI4364
VasaPala
p4350
sI4365
Vasahaja
p4351
sI4366
VasavAna
p4352
sI4367
VaspawAla
p4353
sI4368
VasurakRA
p4354
sI4369
VasurakRiwa
p4355
sI4370
Vaswiwva
p4356
sI4371
VatEca
p4357
sI4372
VatakanA
p4358
sI4373
VatalAMtA
p4359
sI4374
VatrEkta
p4360
sI4375
Vavalokana
p4361
sI4376
VavasWA
p4362
sI4377
VavasWiwa
p4363
sI4378
VavasWiwi
p4364
sI4379
VavawaraNa
p4365
sI4380
VaviBAjya
p4366
sI4381
Vawa
p4367
sI4382
VawiWi
p4368
sI4383
VawipUrva
p4369
sI4384
Vawyuwwama
p4370
sI4385
VaxaBuwa
p4371
sI4386
Vaxaraka
p4372
sI4387
VaxqSya
p4373
sI4388
VaxviwIya
p4374
sI4389
VbADZa
p4375
sI4390
VbAGoM
p4376
sI4391
VbAI
p4377
sI4392
VbAMXanA
p4378
sI4393
VbAMXane
p4379
sI4394
VbAMXawe
p4380
sI4395
VbAMsa
p4381
sI4396
VbAMsoM
p4382
sI4397
VbAMtane
p4383
sI4398
VbAMtegI
p4384
sI4399
VbANagaMgA
p4385
sI4400
VbAWiMga
p4386
sI4401
VbAbA
p4387
sI4402
VbAbara
p4388
sI4403
VbAdZI
p4389
sI4404
VbAdZamera
p4390
sI4405
VbAgAna
p4391
sI4406
VbAgIcoM
p4392
sI4407
VbAhubalI
p4393
sI4408
VbAhya
p4394
sI4409
VbAikara
p4395
sI4410
VbAipAsa
p4396
sI4411
VbAjAroM
p4397
sI4412
VbAjZAra
p4398
sI4413
VbAjiyoM
p4399
sI4414
VbAjoM
p4400
sI4415
VbAlAoM
p4401
sI4416
VbAlU
p4402
sI4417
VbAlaka
p4403
sI4418
VbAlukA
p4404
sI4419
VbArAlAcA
p4405
sI4420
VbArI
p4406
sI4421
VbAraha
p4407
sI4422
VbArgena
p4408
sI4423
VbArgeniMga
p4409
sI4424
VbAroM
p4410
sI4425
VbArtara
p4411
sI4426
VbAsavanagudZI
p4412
sI4427
VbAsketa
p4413
sI4428
VbAskita
p4414
sI4429
VbAtU
p4415
sI4430
VbAta
p4416
sI4431
VbAvana
p4417
sI4432
VbAyo
p4418
sI4433
VbAztA
p4419
sI4434
VbAzte
p4420
sI4435
VbEMgana
p4421
sI4436
VbEMkara
p4422
sI4437
VbEMkoM
p4423
sI4438
VbETA
p4424
sI4439
VbETaka
p4425
sI4440
VbETawe
p4426
sI4441
VbETegA
p4427
sI4442
VbEdamiMtana
p4428
sI4443
VbEgeja
p4429
sI4444
VbEka
p4430
sI4445
VbEktriyana
p4431
sI4446
VbElagAma
p4432
sI4447
VbEtariyAM
p4433
sI4448
VbEtrI
p4434
sI4449
VbIdZI
p4435
sI4450
VbIdana
p4436
sI4451
VbIjApura
p4437
sI4452
VbIjiMga
p4438
sI4453
VbIligirI
p4439
sI4454
VbImA
p4440
sI4455
VbImArI
p4441
sI4456
VbImAriyoM
p4442
sI4457
VbIna
p4443
sI4458
VbIra
p4444
sI4459
VbIta
p4445
sI4460
VbIvI
p4446
sI4461
VbIwa
p4447
sI4462
VbIyara
p4448
sI4463
VbOXxa
p4449
sI4464
VbOYtEnikala
p4450
sI4465
VbOYya
p4451
sI4466
VbOYyakAta
p4452
sI4467
VbOxGa
p4453
sI4468
VbOxXavAxa
p4454
sI4469
VbUMxa
p4455
sI4470
VbUte
p4456
sI4471
VbUtiyoM
p4457
sI4472
VbaDAwA
p4458
sI4473
VbaDZA
p4459
sI4474
VbaDZAe
p4460
sI4475
VbaDZAeM
p4461
sI4476
VbaDZAkara
p4462
sI4477
VbaDZI
p4463
sI4478
VbaDZanA
p4464
sI4479
VbaDZawa
p4465
sI4480
VbaDZiye
p4466
sI4481
VbaKUbI
p4467
sI4482
VbaMXa
p4468
sI4483
VbaMgAlI
p4469
sI4484
VbaMgale
p4470
sI4485
VbaMgalora
p4471
sI4486
VbaMgaluru
p4472
sI4487
VbaMtI
p4473
sI4488
VbaMxara
p4474
sI4489
VbaMxaragAha
p4475
sI4490
VbaSarwe
p4476
sI4491
VbabUna
p4477
sI4492
Vbabala
p4478
sI4493
VbacAva
p4479
sI4494
VbacAwI
p4480
sI4495
Vbacakara
p4481
sI4496
VbacanA
p4482
sI4497
Vbacapana
p4483
sI4498
Vbacawa
p4484
sI4499
Vbaccana
p4485
sI4500
VbaceMge
p4486
sI4501
VbadZOxA
p4487
sI4502
VbadZoM
p4488
sI4503
Vbade
p4489
sI4504
VbagEra
p4490
sI4505
VbagIcoM
p4491
sI4506
VbahAnA
p4492
sI4507
VbahAva
p4493
sI4508
VbahAwI
p4494
sI4509
VbahAxurI
p4495
sI4510
VbahakAve
p4496
sI4511
VbahalAne
p4497
sI4512
Vbahane
p4498
sI4513
Vbahawe
p4499
sI4514
Vbahula
p4500
sI4515
VbahuraMgA
p4501
sI4516
VbahuwAyawa
p4502
sI4517
VbajA
p4503
sI4518
VbajAja
p4504
sI4519
VbajAwe
p4505
sI4520
Vbala
p4506
sI4521
VbalaKAwA
p4507
sI4522
VbalasOra
p4508
sI4523
VbalavaMwa
p4509
sI4524
Vbalirna
p4510
sI4525
VbaluA
p4511
sI4526
VbamabArI
p4512
sI4527
VbanAnA
p4513
sI4528
VbanArasa
p4514
sI4529
VbanAye
p4515
sI4530
Vbanakara
p4516
sI4531
VbananI
p4517
sI4532
VbanarjI
p4518
sI4533
VbanavA
p4519
sI4534
VbanawA
p4520
sI4535
Vbanawe
p4521
sI4536
VbanneraGAta
p4522
sI4537
VbanxarapUzCa
p4523
sI4538
VbarAmaxA
p4524
sI4539
VbarPIle
p4525
sI4540
VbarPZa
p4526
sI4541
Vbarabasa
p4527
sI4542
VbaravA
p4528
sI4543
VbarawanA
p4529
sI4544
Vbargara
p4530
sI4545
VbarmA
p4531
sI4546
VbarmiMGama
p4532
sI4547
VbarxASwa
p4533
sI4548
VbasAne
p4534
sI4549
VbasAyA
p4535
sI4550
VbasI
p4536
sI4551
VbasIM
p4537
sI4552
Vbasane
p4538
sI4553
Vbasara
p4539
sI4554
VbaseM
p4540
sI4555
VbasilikA
p4541
sI4556
VbaswiyoM
p4542
sI4557
VbawAe
p4543
sI4558
VbawAnA
p4544
sI4559
VbawAne
p4545
sI4560
VbawaKa
p4546
sI4561
VbaxXa
p4547
sI4562
VbaxalAvoM
p4548
sI4563
VbaxalawA
p4549
sI4564
VbayAM
p4550
sI4565
VbeMgalurU
p4551
sI4566
VbeMgaluru
p4552
sI4567
VbeSakImawI
p4553
sI4568
VbeSumAra
p4554
sI4569
VbedZe
p4555
sI4570
Vbekda
p4556
sI4571
Vbelta
p4557
sI4572
Vbeltsa
p4558
sI4573
VbepanAha
p4559
sI4574
VbesabrI
p4560
sI4575
Vbestila
p4561
sI4576
Vbetara
p4562
sI4577
VbewarawIba
p4563
sI4578
VbewavA
p4564
sI4579
VbiCue
p4565
sI4580
VbiKera
p4566
sI4581
VbiMxu
p4567
sI4582
VbidZalA
p4568
sI4583
VbihAra
p4569
sI4584
Vbijanasa
p4570
sI4585
Vbila
p4571
sI4586
VbildiMgoM
p4572
sI4587
VbillI
p4573
sI4588
VbinxuoM
p4574
sI4589
VbirAxarI
p4575
sI4590
Vbiskita
p4576
sI4591
Vbiswara
p4577
sI4592
VbiwAI
p4578
sI4593
VbiwAeM
p4579
sI4594
VbiwAkara
p4580
sI4595
Vbiyara
p4581
sI4596
VblOYka
p4582
sI4597
VblU
p4583
sI4598
VboJa
p4584
sI4599
VboXisawva
p4585
sI4600
Vbojjakonda
p4586
sI4601
VbolA
p4587
sI4602
VbolI
p4588
sI4603
Vbolane
p4589
sI4604
VbonaPAyara
p4590
sI4605
Vbonasa
p4591
sI4606
VborA
p4592
sI4607
Vbora
p4593
sI4608
VboriMga
p4594
sI4609
Vboriyawa
p4595
sI4610
Vbowala
p4596
sI4611
VbowsavAnA
p4597
sI4612
Vbqhaspawi
p4598
sI4613
VbrAMca
p4599
sI4614
VbrEMda
p4600
sI4615
VbrEMdeda
p4601
sI4616
VbrEMdsa
p4602
sI4617
VbrIxiMga
p4603
sI4618
VbrOYdavOYka
p4604
sI4619
VbraSa
p4605
sI4620
Vbrahma
p4606
sI4621
VbrajaBUmi
p4607
sI4622
Vbresta
p4608
sI4623
VbriMga
p4609
sI4624
VbritiSarsa
p4610
sI4625
VbritiSavAsiyoM
p4611
sI4626
Vbrokareja
p4612
sI4627
VbuMxelaKaMda
p4613
sI4628
VbuXavAra
p4614
sI4629
Vbukda
p4615
sI4630
VbukiMgsa
p4616
sI4631
Vbukita
p4617
sI4632
VbulA
p4618
sI4633
Vbulanxa
p4619
sI4634
Vbunane
p4620
sI4635
VburA
p4621
sI4636
VburjoM
p4622
sI4637
VbuxXi
p4623
sI4638
VbyUro
p4624
sI4639
VcAMga
p4625
sI4640
VcAMseja
p4626
sI4641
VcAMxI
p4627
sI4642
VcAhakara
p4628
sI4643
VcAhane
p4629
sI4644
VcAhawa
p4630
sI4645
VcAinA
p4631
sI4646
VcAkU
p4632
sI4647
VcAmuMdA
p4633
sI4648
VcAmuMdeSvarI
p4634
sI4649
VcAmuNdI
p4635
sI4650
VcAmuNdeSvarI
p4636
sI4651
VcArAgAhI
p4637
sI4652
VcArlsa
p4638
sI4653
VcArma
p4639
sI4654
VcAtane
p4640
sI4655
VcEMbara
p4641
sI4656
VcEmpiyanaSipoM
p4642
sI4657
VcEnaloM
p4643
sI4658
VcEpala
p4644
sI4659
VcEwya
p4645
sI4660
VcIPa
p4646
sI4661
VcIjZeM
p4647
sI4662
VcInI
p4648
sI4663
VcIrawI
p4649
sI4664
VcIwe
p4650
sI4665
VcO
p4651
sI4666
VcOKamBA
p4652
sI4667
VcOKata
p4653
sI4668
VcOWI
p4654
sI4669
VcOWe
p4655
sI4670
VcOXArA
p4656
sI4671
VcOXavIM
p4657
sI4672
VcOYpiMga
p4658
sI4673
VcOYpxama
p4659
sI4674
VcOdZI
p4660
sI4675
VcOhAna
p4661
sI4676
VcOkI
p4662
sI4677
VcOka
p4663
sI4678
VcUhe
p4664
sI4679
VcUja
p4665
sI4680
VcUkane
p4666
sI4681
VcUlhI
p4667
sI4682
VcUra
p4668
sI4683
VcaDZAve
p4669
sI4684
VcaDZAyA
p4670
sI4685
VcaDZI
p4671
sI4686
VcaDZa
p4672
sI4687
VcaDZakara
p4673
sI4688
VcaDZawe
p4674
sI4689
VcaDZe
p4675
sI4690
VcaKane
p4676
sI4691
VcaKeM
p4677
sI4692
VcaMgalimiWaMga
p4678
sI4693
VcaMxana
p4679
sI4694
VcaMxraBagA
p4680
sI4695
VcaMxraSeKara
p4681
sI4696
VcaMxramA
p4682
sI4697
VcaMxravaram
p4683
sI4698
VcaSmA
p4684
sI4699
VcabUwaroM
p4685
sI4700
VcahacahAnA
p4686
sI4701
Vcakallasa
p4687
sI4702
VcalAwe
p4688
sI4703
VcalI
p4689
sI4704
Vcalahapahala
p4690
sI4705
VcaleMge
p4691
sI4706
VcalegA
p4692
sI4707
VcamakIloM
p4693
sI4708
VcamakaxAra
p4694
sI4709
VcambA
p4695
sI4710
VcanxramA
p4696
sI4711
VcanxravaMSIya
p4697
sI4712
VcaragAhI
p4698
sI4713
Vcarama
p4699
sI4714
VcaramarAwe
p4700
sI4715
VcaranarAjAgAra
p4701
sI4716
Vcarciwa
p4702
sI4717
VcaskA
p4703
sI4718
VcatAI
p4704
sI4719
VcataKa
p4705
sI4720
Vcatakawe
p4706
sI4721
VcattAmabalama
p4707
sI4722
VcattAne
p4708
sI4723
VcattAneM
p4709
sI4724
VcawurBuja
p4710
sI4725
VcawurvexI
p4711
sI4726
Vcayana
p4712
sI4727
VceMja
p4713
sI4728
Vcekaina
p4714
sI4729
Vceyarsa
p4715
sI4730
VciSawI
p4716
sI4731
VcidZiyAGara
p4717
sI4732
VcikiwsakIya
p4718
sI4733
VcilacilAwI
p4719
sI4734
VcillAhata
p4720
sI4735
VcimawuIpaI
p4721
sI4736
Vcinha
p4722
sI4737
VcirOtI
p4723
sI4738
VcirakAla
p4724
sI4739
VciwrOlI
p4725
sI4740
VciwrakAroM
p4726
sI4741
Vciwriwa
p4727
sI4742
Vcom
p4728
sI4743
Vcota
p4729
sI4744
VcukIM
p4730
sI4745
VcunAva
p4731
sI4746
VcunI
p4732
sI4747
VcunOwiyAz
p4733
sI4748
Vcuna
p4734
sI4749
Vcunakara
p4735
sI4750
VcuneMge
p4736
sI4751
Vcupake
p4737
sI4752
VcuskI
p4738
sI4753
VcuswI
p4739
sI4754
VcutAgI
p4740
sI4755
VdAirektara
p4741
sI4756
VdAita
p4742
sI4757
VdAiva
p4743
sI4758
VdAkapAWera
p4744
sI4759
VdAkkA
p4745
sI4760
VdAlI
p4746
sI4761
VdAla
p4747
sI4762
VdAlanA
p4748
sI4763
VdAlawe
p4749
sI4764
VdAliyAz
p4750
sI4765
VdAyapara
p4751
sI4766
VdAyariyA
p4752
sI4767
VdAyavarsitIja
p4753
sI4768
VdIpa
p4754
sI4769
VdOYktaroM
p4755
sI4770
VdOYkyUmeMta
p4756
sI4771
VdOYkyumeMtsa
p4757
sI4772
VdOYlPiMsa
p4758
sI4773
VdUbane
p4759
sI4774
VdaPala
p4760
sI4775
VdalahOjZI
p4761
sI4776
Vdarane
p4762
sI4777
Vdelhi
p4763
sI4778
Vdenima
p4764
sI4779
VderA
p4765
sI4780
Vdeska
p4766
sI4781
VdestIneSana
p4767
sI4782
Vdeta
p4768
sI4783
Vdevalapa
p4769
sI4784
VdevalapameMta
p4770
sI4785
VdeyarI
p4771
sI4786
VdiPrOYstara
p4772
sI4787
VdiSeja
p4773
sI4788
Vdibeta
p4774
sI4789
Vdidektiva
p4775
sI4790
VdigrI
p4776
sI4791
VdihAidreta
p4777
sI4792
Vdijitala
p4778
sI4793
VdilAina
p4779
sI4794
VdimAMda
p4780
sI4795
VdiplomEtika
p4781
sI4796
VdiskoM
p4782
sI4797
VdiskoWika
p4783
sI4798
VdistaMsa
p4784
sI4799
VdivelapamaMta
p4785
sI4800
Vdivijanala
p4786
sI4801
Vdoma
p4787
sI4802
VdosA
p4788
sI4803
VdrAivaroM
p4789
sI4804
VdrAmEtika
p4790
sI4805
VdrEgana
p4791
sI4806
VdrIma
p4792
sI4807
Vdresija
p4793
sI4808
Vdube
p4794
sI4809
Vdubo
p4795
sI4810
VdugAvA
p4796
sI4811
VdyUreSana
p4797
sI4812
VdyUtIja
p4798
sI4813
Ve.dI.
p4799
sI4814
VeMWonI
p4800
sI4815
VeMbEsadara
p4801
sI4816
VeMgara
p4802
sI4817
VeMjIniyara
p4803
sI4818
VeMkleva
p4804
sI4819
VeMplAija
p4805
sI4820
VeMtI
p4806
sI4821
VeMtalAtika
p4807
sI4822
Vedaleda
p4808
sI4823
VedavAMsda
p4809
sI4824
VedavAijarI
p4810
sI4825
VedaveMcarasa
p4811
sI4826
VediSana
p4812
sI4827
VegjIkyUtiva
p4813
sI4828
VegjOYsta
p4814
sI4829
VegjikyUtiva
p4815
sI4830
VegrImeMta
p4816
sI4831
VehawiyAwa
p4817
sI4832
VejaMsI
p4818
sI4833
VejeMsiyAM
p4819
sI4834
VejeMtsa
p4820
sI4835
VejukeSana
p4821
sI4836
VekASma
p4822
sI4837
VekAkIpana
p4823
sI4838
Vekawra
p4824
sI4839
Vekaxama
p4825
sI4840
Veksa
p4826
sI4841
VeksaceMja
p4827
sI4842
VeksaperimaMta
p4828
sI4843
Veksapesa
p4829
sI4844
Veksaplora
p4830
sI4845
Veksapoja
p4831
sI4846
Veksapresa
p4832
sI4847
VeksesarI
p4833
sI4848
VeksideMta
p4834
sI4849
Veksileretara
p4835
sI4850
VektivitI
p4836
sI4851
VektivitIjZa
p4837
sI4852
Vektivitija
p4838
sI4853
VelIPEMtA
p4839
sI4854
VelakjeMdara
p4840
sI4855
Velisiyama
p4841
sI4856
VelkemI
p4842
sI4857
VenarjI
p4843
sI4858
VenavAyaranameMta
p4844
sI4859
Venklojara
p4845
sI4860
VeranAkulama
p4846
sI4861
VesI
p4847
sI4862
VesosieSaMsa
p4848
sI4863
VeyarakrAPta
p4849
sI4864
VgADZA
p4850
sI4865
VgAWA
p4851
sI4866
VgAdIyoM
p4852
sI4867
VgAdZiyAM
p4853
sI4868
VgAdiyAM
p4854
sI4869
VgAmA
p4855
sI4870
VgAmina
p4856
sI4871
VgArbija
p4857
sI4872
VgArdansa
p4858
sI4873
VgAxa
p4859
sI4874
VgAyI
p4860
sI4875
VgAyaba
p4861
sI4876
VgAyakI
p4862
sI4877
VgAzXI
p4863
sI4878
VgAzvavAsiyoM
p4864
sI4879
VgEMbaliMga
p4865
sI4880
VgEmpo
p4866
sI4881
VgEra
p4867
sI4882
VgEwUra
p4868
sI4883
VgIjA
p4869
sI4884
VgIlI
p4870
sI4885
VgIwA
p4871
sI4886
VgIwoM
p4872
sI4887
VgIyara
p4873
sI4888
VgOYda
p4874
sI4889
VgOmuKa
p4875
sI4890
VgOra
p4876
sI4891
VgOravaSAlI
p4877
sI4892
VgOwama
p4878
sI4893
VgUDZa
p4879
sI4894
VgaDZavAlI
p4880
sI4895
VgaMgAXareSvara
p4881
sI4896
VgaMga
p4882
sI4897
VgaMgate
p4883
sI4898
VgaMgowrI
p4884
sI4899
VgaNeSa
p4885
sI4900
VgaNoM
p4886
sI4901
VgaTana
p4887
sI4902
VgadZagadZAhata
p4888
sI4903
VgahanoM
p4889
sI4904
VgaharA
p4890
sI4905
VgaharI
p4891
sI4906
Vgajanera
p4892
sI4907
VgajenxramokRama
p4893
sI4908
VgalA
p4894
sI4909
VgalAne
p4895
sI4910
VgaliyAre
p4896
sI4911
VgaliyAroM
p4897
sI4912
VgaliyoM
p4898
sI4913
VgarBa
p4899
sI4914
VgarBavawI
p4900
sI4915
VgarIba
p4901
sI4916
VgarIboM
p4902
sI4917
VgaramI
p4903
sI4918
VgardZana
p4904
sI4919
VgarjanA
p4905
sI4920
Vgarva
p4906
sI4921
Vgarviwa
p4907
sI4922
Vgavarnara
p4908
sI4923
VgawiviXi
p4909
sI4924
VgaxxI
p4910
sI4925
VgayIM
p4911
sI4926
VgeMtiMga
p4912
sI4927
Vgeja
p4913
sI4928
VgilAsa
p4914
sI4929
VginIja
p4915
sI4930
Vgine
p4916
sI4931
VgirA
p4917
sI4932
VgirAne
p4918
sI4933
VgirajA
p4919
sI4934
VgirajAGaroM
p4920
sI4935
Vgirakara
p4921
sI4936
Vgirane
p4922
sI4937
VgirawI
p4923
sI4938
Vgirawe
p4924
sI4939
Vglavsa
p4925
sI4940
VgleSiyara
p4926
sI4941
VgledietaroM
p4927
sI4942
VglobalAijeSana
p4928
sI4943
VgoMdoM
p4929
sI4944
Vgolda
p4930
sI4945
VgompA
p4931
sI4946
Vgopa
p4932
sI4947
VgopanIyawA
p4933
sI4948
Vgopurama
p4934
sI4949
VgorI
p4935
sI4950
VgovadZe
p4936
sI4951
VgowAKorI
p4937
sI4952
VgowAKoroM
p4938
sI4953
VgrAhaka
p4939
sI4954
VgrIRmakAlIna
p4940
sI4955
VgrIRmaqwu
p4941
sI4956
VgrInahAusa
p4942
sI4957
Vgraswa
p4943
sI4958
Vgro
p4944
sI4959
VgroWa
p4945
sI4960
Vgroto
p4946
sI4961
VguNa
p4947
sI4962
VguNavawwA
p4948
sI4963
VguPZAoM
p4949
sI4964
Vguda
p4950
sI4965
VgujArA
p4951
sI4966
VgujAra
p4952
sI4967
VgujAranA
p4953
sI4968
VgujArane
p4954
sI4969
VgujAre
p4955
sI4970
VgujarawI
p4956
sI4971
Vgujare
p4957
sI4972
VgulAma
p4958
sI4973
Vgulabarga
p4959
sI4974
Vgulamohara
p4960
sI4975
VgumanAmI
p4961
sI4976
Vgundala
p4962
sI4977
VgupwA
p4963
sI4978
Vgupwa
p4964
sI4979
VgupwoM
p4965
sI4980
VgurU
p4966
sI4981
VgurjaroM
p4967
sI4982
VgurunAnaka
p4968
sI4983
VgussA
p4969
sI4984
VgvAliyara
p4970
sI4985
VgyAraha
p4971
sI4986
VgyArahavI
p4972
sI4987
VhAIskUla
p4973
sI4988
VhAPa
p4974
sI4989
VhAikiMga
p4975
sI4990
VhAilEMda
p4976
sI4991
VhAlabidZa
p4977
sI4992
VhAnikAraka
p4978
sI4993
VhArbara
p4979
sI4994
VhArda
p4980
sI4995
VhAreM
p4981
sI4996
VhAusabotsa
p4982
sI4997
VhAuseja
p4983
sI4998
VhAvA
p4984
sI4999
VhAvaBAva
p4985
sI5000
VhAvarA
p4986
sI5001
VhEMdIkrAPtsa
p4987
sI5002
VhEMdabEga
p4988
sI5003
VhEMgiMga
p4989
sI5004
VhElipEda
p4990
sI5005
VhEmabarga
p4991
sI5006
VhEnda
p4992
sI5007
VhEndalUma
p4993
sI5008
VhErawaaMgeja
p4994
sI5009
VhEriteja
p4995
sI5010
VhIrA
p4996
sI5011
VhIraka
p4997
sI5012
VhItara
p4998
sI5013
VhOYbI
p4999
sI5014
VhOYbIja
p5000
sI5015
VhOYkI
p5001
sI5016
VhOYloina
p5002
sI5017
VhOYngakOYnga
p5003
sI5018
VhOYrsa
p5004
sI5019
VhaMsI
p5005
sI5020
VhaMsawe
p5006
sI5021
VhaPwA
p5007
sI5022
VhaWakaraGA
p5008
sI5023
VhaWinI
p5009
sI5024
Vhaba
p5010
sI5025
VhaddiyoM
p5011
sI5026
Vhae
p5012
sI5027
VhajArA
p5013
sI5028
Vhaka
p5014
sI5029
VhalkA
p5015
sI5030
VhamasaPara
p5016
sI5031
Vhambreta
p5017
sI5032
VhanIPZa
p5018
sI5033
VhanImUnarsa
p5019
sI5034
VhanxumAna
p5020
sI5035
VharA
p5021
sI5036
VharakaweM
p5022
sI5037
VharakawoM
p5023
sI5038
Vharaxama
p5024
sI5039
VhariNa
p5025
sI5040
VhariwASma
p5026
sI5041
VharixvAra
p5027
sI5042
VhasabeMda
p5028
sI5043
Vhatake
p5029
sI5044
Vhatane
p5030
sI5045
Vhatsa
p5031
sI5046
VhavAoM
p5032
sI5047
VhavelI
p5033
sI5048
VhaveliyoM
p5034
sI5049
VhawWe
p5035
sI5050
VhawyA
p5036
sI5051
VhelIskIiMga
p5037
sI5052
Vhelameta
p5038
sI5053
Vhelana
p5039
sI5054
VhelikOYptara
p5040
sI5055
Vhello
p5041
sI5056
Vhelo
p5042
sI5057
VhelpalAina
p5043
sI5058
VhelsiMkI
p5044
sI5059
Vheritija
p5045
sI5060
VhiMxu
p5046
sI5061
VhiPAjawa
p5047
sI5062
Vhicaka
p5048
sI5063
Vhiltana
p5049
sI5064
VhimAcCAxiwa
p5050
sI5065
Vhima
p5051
sI5066
VhimanaxiyoM
p5052
sI5067
VhimareKA
p5053
sI5068
VhinAyana
p5054
sI5069
VhippI
p5055
sI5070
VhirAwa
p5056
sI5071
Vhistorika
p5057
sI5072
VhistrI
p5058
sI5073
VhiwoM
p5059
sI5074
VhoSiyAra
p5060
sI5075
Vhodela
p5061
sI5076
Vhoja
p5062
sI5077
VhonI
p5063
sI5078
VhordiMgoM
p5064
sI5079
Vhospata
p5065
sI5080
Vhospeta
p5066
sI5081
Vhotela
p5067
sI5082
VhoyasAleSvara
p5068
sI5083
Vhoyasala
p5069
sI5084
Vhqxaya
p5070
sI5085
VhrAsameMta
p5071
sI5086
Vhraxaya
p5072
sI5087
VhuIM
p5073
sI5088
Vhunara
p5074
sI5089
Vhuye
p5075
sI5090
VhvIlsa
p5076
sI5091
Vhxaya
p5077
sI5092
ViMdastriyala
p5078
sI5093
ViMdo
p5079
sI5094
ViMgaleMda
p5080
sI5095
ViMsAnI
p5081
sI5096
ViMspIreSana
p5082
sI5097
ViMstityUSaMsa
p5083
sI5098
ViMstityUta
p5084
sI5099
ViMtIriyara
p5085
sI5100
ViMtaralAkana
p5086
sI5101
ViMtaraneta
p5087
sI5102
ViMtaresta
p5088
sI5103
ViMwajAmoM
p5089
sI5104
ViMxOra
p5090
sI5105
ViMxirA
p5091
sI5106
ViPEktsa
p5092
sI5107
ViPektsa
p5093
sI5108
ViSAka
p5094
sI5109
ViTalAwI
p5095
sI5110
ViWopiyana
p5096
sI5111
ViXara
p5097
sI5112
VicCASakwi
p5098
sI5113
VidalI
p5099
sI5114
VigjekyUtiva
p5100
sI5115
VigniSana
p5101
sI5116
Vignora
p5102
sI5117
VijAPe
p5103
sI5118
VijAjawa
p5104
sI5119
VikOYnamI
p5105
sI5120
VikanOYmika
p5106
sI5121
VikatTA
p5107
sI5122
Vikosisatama
p5108
sI5123
Vikvetara
p5109
sI5124
VilAja
p5110
sI5125
VilektrOYnika
p5111
sI5126
VimArawoM
p5112
sI5127
VimigreSana
p5113
sI5128
VinPosisa
p5114
sI5129
VinaPlEtebila
p5115
sI5130
VinakA
p5116
sI5131
Vinakredibala
p5117
sI5132
VinaseMtiva
p5118
sI5133
VinasomaniyA
p5119
sI5134
Vinavestarsa
p5120
sI5135
Vindiatimes
p5121
sI5136
Vinhone
p5122
sI5137
VinjOYya
p5123
sI5138
VinjOYyamaMta
p5124
sI5139
Vinxra
p5125
sI5140
VisIlie
p5126
sI5141
VisanA
p5127
sI5142
ViswAnA
p5128
sI5143
VitAliyana
p5129
sI5144
Viwra
p5130
sI5145
VjAMbAjI
p5131
sI5146
VjAMbAja
p5132
sI5147
VjAeMgI
p5133
sI5148
VjAhi
p5134
sI5149
VjAlI
p5135
sI5150
VjAlIxAra
p5136
sI5151
VjAma
p5137
sI5152
VjAmaCena
p5138
sI5153
VjAnakAriyAM
p5139
sI5154
VjAneM
p5140
sI5155
VjArja
p5141
sI5156
VjAwaka
p5142
sI5157
VjAxuI
p5143
sI5158
VjEkita
p5144
sI5159
VjEma
p5145
sI5160
VjInA
p5146
sI5161
VjIne
p5147
sI5162
VjIsasa
p5148
sI5163
VjIvanakAla
p5149
sI5164
VjIvanwa
p5150
sI5165
VjIviwa
p5151
sI5166
VjIvoM
p5152
sI5167
VjIwA
p5153
sI5168
VjIwane
p5154
sI5169
VjOYina
p5155
sI5170
VjOYlI
p5156
sI5171
VjOYrja
p5157
sI5172
VjOlajIbI
p5158
sI5173
VjUJa
p5159
sI5174
VjUJanA
p5160
sI5175
VjUJane
p5161
sI5176
VjUniyara
p5162
sI5177
VjZahara
p5163
sI5178
VjZarUrI
p5164
sI5179
VjZarUra
p5165
sI5180
VjaKmoM
p5166
sI5181
VjaMkSana
p5167
sI5182
VjaMsakAra
p5168
sI5183
VjaMwuoM
p5169
sI5184
Vjabaraxaswa
p5170
sI5185
Vjabase
p5171
sI5186
VjadZAI
p5172
sI5187
VjadZI
p5173
sI5188
VjadZiwa
p5174
sI5189
VjagAne
p5175
sI5190
VjaguAra
p5176
sI5191
VjahArA
p5177
sI5192
Vjahamawa
p5178
sI5193
VjaharIle
p5179
sI5194
Vjahara
p5180
sI5195
VjakadZa
p5181
sI5196
VjalAne
p5182
sI5197
VjalUla
p5183
sI5198
VjalajIvaSAlA
p5184
sI5199
VjalamArgoM
p5185
sI5200
VjalamurgiyoM
p5186
sI5201
VjalaprapAwoM
p5187
sI5202
VjalarASi
p5188
sI5203
VjalawI
p5189
sI5204
VjamAnA
p5190
sI5205
VjamAne
p5191
sI5206
VjamAva
p5192
sI5207
VjamAvadZA
p5193
sI5208
Vjamane
p5194
sI5209
Vjamparsa
p5195
sI5210
VjanAnA
p5196
sI5211
Vjana
p5197
sI5212
VjanagaNanA
p5198
sI5213
VjanajAwiyAM
p5199
sI5214
VjanajAwiyAz
p5200
sI5215
VjanajAwiyoM
p5201
sI5216
VjanajIvana
p5202
sI5217
Vjanaka
p5203
sI5218
Vjanapaxa
p5204
sI5219
VjanasElAba
p5205
sI5220
VjanasaMKyA
p5206
sI5221
VjanmaBUmi
p5207
sI5222
VjanmaxAwA
p5208
sI5223
VjanwuoM
p5209
sI5224
VjarUrawamaMxa
p5210
sI5225
VjariyA
p5211
sI5226
VjavAhara
p5212
sI5227
VjayanwI
p5213
sI5228
VjayasiMha
p5214
sI5229
Vjebakaware
p5215
sI5230
VjettI
p5216
sI5231
VjiMxA
p5217
sI5232
VjiMxAxilI
p5218
sI5233
Vjikra
p5219
sI5234
VjiloM
p5220
sI5235
VjimaKAnA
p5221
sI5236
Vjisako
p5222
sI5237
VjiwanA
p5223
sI5238
Vjixa
p5224
sI5239
VjoKima
p5225
sI5240
VjoSI
p5226
sI5241
VjoSIle
p5227
sI5242
VjoXAbAI
p5228
sI5243
VjodZakara
p5229
sI5244
VjodZawA
p5230
sI5245
VjodZawI
p5231
sI5246
VjodZie
p5232
sI5247
Vjoga
p5233
sI5248
Vjoha
p5234
sI5249
Vjonala
p5235
sI5250
VjoraxAra
p5236
sI5251
VjuJAra
p5237
sI5252
Vjugsapiwsa
p5238
sI5253
VjulA
p5239
sI5254
VjulawA
p5240
sI5255
VjurAbeM
p5241
sI5256
VjutA
p5242
sI5257
Vjutawe
p5243
sI5258
VjvAlAmuKI
p5244
sI5259
Vjyowa
p5245
sI5260
Vjyowi
p5246
sI5261
VkAMca
p5247
sI5262
VkAPUra
p5248
sI5263
VkATamAMdU
p5249
sI5264
VkAijaraWarmana
p5250
sI5265
VkAjU
p5251
sI5266
VkAjaraWarmana
p5252
sI5267
VkAkinAdZA
p5253
sI5268
VkAlA
p5254
sI5269
VkAlAhewI
p5255
sI5270
VkAlAtOYpa
p5256
sI5271
VkAlI
p5257
sI5272
VkAlIna
p5258
sI5273
VkAlaKaMda
p5259
sI5274
VkAlakA
p5260
sI5275
VkAlinxI
p5261
sI5276
VkAlixAsa
p5262
sI5277
VkAlpA
p5263
sI5278
VkAlpanika
p5264
sI5279
VkAmAxagirI
p5265
sI5280
VkAmAxagiri
p5266
sI5281
VkAmakAjoM
p5267
sI5282
VkAmawaciyAmmalE
p5268
sI5283
VkAmayAba
p5269
sI5284
VkAmewa
p5270
sI5285
VkAmoM
p5271
sI5286
VkAnhA
p5272
sI5287
VkArAgAra
p5273
sI5288
VkArIgara
p5274
sI5289
VkArIra
p5275
sI5290
VkAraKAnA
p5276
sI5291
VkAraMjI
p5277
sI5292
VkAravAz
p5278
sI5293
VkArbana
p5279
sI5294
VkArwikApallI
p5280
sI5295
VkArwika
p5281
sI5296
VkAryakrama
p5282
sI5297
VkAryakramoM
p5283
sI5298
VkAryoM
p5284
sI5299
VkAtakara
p5285
sI5300
VkAtane
p5286
sI5301
VkAte
p5287
sI5302
VkAuMsila
p5288
sI5303
VkAuMtara
p5289
sI5304
VkAverI
p5290
sI5305
VkAyAkeiMga
p5291
sI5306
VkAyAmakulama
p5292
sI5307
VkAyama
p5293
sI5308
VkEMbrija
p5294
sI5309
VkEMsala
p5295
sI5310
VkEMsila
p5296
sI5311
VkEPIna
p5297
sI5312
VkESa
p5298
sI5313
VkEWe
p5299
sI5314
VkEbenasa
p5300
sI5315
VkEjuala
p5301
sI5316
VkElASa
p5302
sI5317
VkEmala
p5303
sI5318
VkEmaroM
p5304
sI5319
VkEmpaPAyara
p5305
sI5320
VkEmpe
p5306
sI5321
VkEmpiMga
p5307
sI5322
VkEntOYnameMta
p5308
sI5323
VkEpa
p5309
sI5324
VkEpiMga
p5310
sI5325
VkEpitala
p5311
sI5326
VkEprIja
p5312
sI5327
VkEpsUla
p5313
sI5328
VkEsI
p5314
sI5329
VkEsarOlI
p5315
sI5330
VkEskedsa
p5316
sI5331
VkEta
p5317
sI5332
VkIdZe
p5318
sI5333
VkIdZoM
p5319
sI5334
VkImaweM
p5320
sI5335
VkIrwi
p5321
sI5336
VkIta
p5322
sI5337
VkOYkatela
p5323
sI5338
VkOYlejoM
p5324
sI5339
VkOYlija
p5325
sI5340
VkOYlonI
p5326
sI5341
VkOYmbineSana
p5327
sI5342
VkOYmpaleksa
p5328
sI5343
VkOYmpitiSaMsa
p5329
sI5344
VkOYnsepta
p5330
sI5345
VkOYntEkta
p5331
sI5346
VkOYntesta
p5332
sI5347
VkOYpI
p5333
sI5348
VkOYpiyAM
p5334
sI5349
VkOYpmlEksa
p5335
sI5350
VkOYrdinetara
p5336
sI5351
VkOYstyUma
p5337
sI5352
VkOwuka
p5338
sI5353
VkRaNAMSa
p5339
sI5354
VkRewrIya
p5340
sI5355
VkUbadZa
p5341
sI5356
VkUjiMga
p5342
sI5357
VkUlara
p5343
sI5358
VkUricU
p5344
sI5359
VkUxa
p5345
sI5360
VkaMPyUja
p5346
sI5361
VkaMcana
p5347
sI5362
VkaMcanajaMgA
p5348
sI5363
VkaMdISaMsa
p5349
sI5364
VkaMdiSana
p5350
sI5365
VkaMgadZA
p5351
sI5366
VkaMkrIta
p5352
sI5367
VkaMpeniyama
p5353
sI5368
VkaMsa
p5354
sI5369
VkaMsepta
p5355
sI5370
VkaMtrI
p5356
sI5371
VkaTapuwaliyAM
p5357
sI5372
VkaTora
p5358
sI5373
VkaWAez
p5359
sI5374
VkaWAoM
p5360
sI5375
VkabUwara
p5361
sI5376
VkabjA
p5362
sI5377
VkabjZA
p5363
sI5378
VkadZe
p5364
sI5379
VkagAra
p5365
sI5380
VkahalAne
p5366
sI5381
VkahavA
p5367
sI5382
VkahawA
p5368
sI5383
VkaheM
p5369
sI5384
VkahegA
p5370
sI5385
VkakRa
p5371
sI5386
VkalAbalaMxa
p5372
sI5387
VkalAez
p5373
sI5388
VkalAkAra
p5374
sI5389
VkalAkqwiyOYz
p5375
sI5390
VkalAoM
p5376
sI5391
VkalAwmakawA
p5377
sI5392
VkalaMkArI
p5378
sI5393
Vkalakala
p5379
sI5394
VkalakawwA
p5380
sI5395
Vkalara
p5381
sI5396
VkalaraPula
p5382
sI5397
Vkalpa
p5383
sI5398
VkalpanASIla
p5384
sI5399
VkalpanASakwi
p5385
sI5400
Vkalpiwa
p5386
sI5401
VkalyANa
p5387
sI5402
VkamA
p5388
sI5403
VkamANdeMta
p5389
sI5404
VkamAla
p5390
sI5405
VkamAne
p5391
sI5406
Vkamala
p5392
sI5407
VkamiSana
p5393
sI5408
VkamiSnara
p5394
sI5409
VkammA
p5395
sI5410
VkampaniyAz
p5396
sI5411
VkampaniyoM
p5397
sI5412
VkamyUniketa
p5398
sI5413
VkamyunitI
p5399
sI5414
VkanAdA
p5400
sI5415
VkanPyUjana
p5401
sI5416
Vkanekta
p5402
sI5417
VkannOja
p5403
sI5418
Vkanvartibala
p5404
sI5419
VkanveMSena
p5405
sI5420
Vkapala
p5406
sI5421
Vkapilavaswu
p5407
sI5422
VkarAe
p5408
sI5423
VkarAegI
p5409
sI5424
VkarAkara
p5410
sI5425
VkarAra
p5411
sI5426
VkarIbI
p5412
sI5427
VkarIbana
p5413
sI5428
VkarImanagara
p5414
sI5429
VkarNAlA
p5415
sI5430
VkarNa
p5416
sI5431
Vkarajoka
p5417
sI5432
VkaravAwA
p5418
sI5433
VkarawIM
p5419
sI5434
VkareMgI
p5420
sI5435
Vkarma
p5421
sI5436
VkarnAtakA
p5422
sI5437
VkarnI
p5423
sI5438
VkaselA
p5424
sI5439
VkatibaMXIya
p5425
sI5440
Vkavaca
p5426
sI5441
Vkavlaya
p5427
sI5442
VkavvAliyAz
p5428
sI5443
VkawarAeMge
p5429
sI5444
Vkawipaya
p5430
sI5445
Vkawla
p5431
sI5446
VkaxamI
p5432
sI5447
Vkaxara
p5433
sI5448
VkeMxroM
p5434
sI5449
VkeWedrala
p5435
sI5450
VkekadZoM
p5436
sI5451
Vkelakara
p5437
sI5452
Vkenxriwa
p5438
sI5453
Vkesa
p5439
sI5454
VkesarI
p5440
sI5455
VkettUkAja
p5441
sI5456
Vkeva
p5442
sI5457
VkevalAxeva
p5443
sI5458
Vkevsa
p5444
sI5459
VkexAha
p5445
sI5460
VkexAranAWa
p5446
sI5461
Vkexra
p5447
sI5462
VkiMgsa
p5448
sI5463
VkiMwu
p5449
sI5464
VkiSanapura
p5450
sI5465
VkiSwoM
p5451
sI5466
Vkicana
p5452
sI5467
VkilakanI
p5453
sI5468
VkilebaMxa
p5454
sI5469
VkilemItara
p5455
sI5470
VkilenumA
p5456
sI5471
VkilkI
p5457
sI5472
VkinAroM
p5458
sI5473
Vkina
p5459
sI5474
VkirAne
p5460
sI5475
VkirAye
p5461
sI5476
VkirAyoM
p5462
sI5477
Vkisma
p5463
sI5478
Vkismawa
p5464
sI5479
VkissA
p5465
sI5480
VkiwanoM
p5466
sI5481
VklAiMtsa
p5467
sI5482
VklAka
p5468
sI5483
VklOYWa
p5469
sI5484
VklOYka
p5470
sI5485
VklOYta
p5471
sI5486
VklaboM
p5472
sI5487
VkliPa
p5473
sI5488
Vkloja
p5474
sI5489
Vklojda
p5475
sI5490
VkoNa
p5476
sI5491
VkoSa
p5477
sI5492
VkocIna
p5478
sI5493
Vkoca
p5479
sI5494
Vkocci
p5480
sI5495
Vkoda
p5481
sI5496
Vkoha
p5482
sI5497
VkoharA
p5483
sI5498
Vkohare
p5484
sI5499
VkolAhala
p5485
sI5500
VkolAhalapUrNa
p5486
sI5501
Vkolikata
p5487
sI5502
Vkolona
p5488
sI5503
Vkoloniyala
p5489
sI5504
Vkomala
p5490
sI5505
VkomalawA
p5491
sI5506
VkonArka
p5492
sI5507
Vkoribana
p5493
sI5508
VkoriyA
p5494
sI5509
VkorsoM
p5495
sI5510
Vkosta
p5496
sI5511
VkotA
p5497
sI5512
Vkotabana
p5498
sI5513
Vkoti
p5499
sI5514
VkottAyama
p5500
sI5515
Vkova
p5501
sI5516
Vkovalama
p5502
sI5517
VkoxAroSvara
p5503
sI5518
VkqRNArAjA
p5504
sI5519
VkqRNarAjasAgara
p5505
sI5520
VkqRi
p5506
sI5521
VkqpA
p5507
sI5522
VkqpayA
p5508
sI5523
VkqwiyAM
p5509
sI5524
Vkqwrima
p5510
sI5525
VkrAMwikArI
p5511
sI5526
VkrEga
p5512
sI5527
VkrIdZAoez
p5513
sI5528
VkrIdZAwmaka
p5514
sI5529
VkrOYsa
p5515
sI5530
Vkramika
p5516
sI5531
Vkrietiva
p5517
sI5532
VkrietivitI
p5518
sI5533
Vkriketa
p5519
sI5534
Vkrinolina
p5520
sI5535
VkuKyAwa
p5521
sI5536
VkuMdoM
p5522
sI5537
VkuMja
p5523
sI5538
VkuSInArA
p5524
sI5539
VkuSalawA
p5525
sI5540
VkuSalawAoM
p5526
sI5541
Vkubona
p5527
sI5542
VkukarahalI
p5528
sI5543
VkumArI
p5529
sI5544
VkumAra
p5530
sI5545
VkumArakama
p5531
sI5546
VkumAriyoM
p5532
sI5547
Vkuwwe
p5533
sI5548
VkvAlAMlapura
p5534
sI5549
VkvArtja
p5535
sI5550
VkvijZIna
p5536
sI5551
VkyArI
p5537
sI5552
VkyUta
p5538
sI5553
Vkyoki
p5539
sI5554
Vkyume
p5540
sI5555
VlAI
p5541
sI5556
VlAPsa
p5542
sI5557
VlAPtara
p5543
sI5558
VlAe
p5544
sI5559
VlAhowI
p5545
sI5560
VlAiPastAila
p5546
sI5561
VlAibrerI
p5547
sI5562
VlAimA
p5548
sI5563
VlAina
p5549
sI5564
VlAiseMsI
p5550
sI5565
VlAitahAusa
p5551
sI5566
VlAiva
p5552
sI5567
VlAjamI
p5553
sI5568
VlAjavAba
p5554
sI5569
VlAjimI
p5555
sI5570
VlAkara
p5556
sI5571
VlAlA
p5557
sI5572
VlAlarewIlA
p5558
sI5573
VlAmA
p5559
sI5574
VlAne
p5560
sI5575
VlAparavAhI
p5561
sI5576
VlArajI
p5562
sI5577
VlAsa
p5563
sI5578
VlAuMja
p5564
sI5579
VlAwI
p5565
sI5580
VlAwviyA
p5566
sI5581
VlEGorna
p5567
sI5582
VlEsa
p5568
sI5583
VlIja
p5569
sI5584
VlItara
p5570
sI5585
VlOYbI
p5571
sI5586
VlOYbstara
p5572
sI5587
VlOYga
p5573
sI5588
VlOYjiMga
p5574
sI5589
VlOYka
p5575
sI5590
VlOYna
p5576
sI5591
VlOYrda
p5577
sI5592
VlOYsta
p5578
sI5593
VlOta
p5579
sI5594
VlOtawe
p5580
sI5595
VlaMca
p5581
sI5596
VlaMgAlI
p5582
sI5597
VlaMgUra
p5583
sI5598
VlaMgara
p5584
sI5599
VlaMkA
p5585
sI5600
VladZake
p5586
sI5601
VladZe
p5587
sI5602
VladduoM
p5588
sI5603
VlagAI
p5589
sI5604
VlagAeM
p5590
sI5605
VlagAeMge
p5591
sI5606
VlagAkara
p5592
sI5607
VlagAma
p5593
sI5608
VlagAnA
p5594
sI5609
VlagAwI
p5595
sI5610
VlagAye
p5596
sI5611
VlagavAe
p5597
sI5612
VlageM
p5598
sI5613
VlagegI
p5599
sI5614
Vlagjuriyasa
p5600
sI5615
Vlahaje
p5601
sI5616
VlahalahAwe
p5602
sI5617
VlaharAwe
p5603
sI5618
VlahareM
p5604
sI5619
VlakadZabagGe
p5605
sI5620
VlakjarI
p5606
sI5621
VlalacAne
p5607
sI5622
Vlaliwapura
p5608
sI5623
VlamheM
p5609
sI5624
VlataWiyA
p5610
sI5625
VlatakA
p5611
sI5626
VlawvijA
p5612
sI5627
VlawviyA
p5613
sI5628
VlaxxAKI
p5614
sI5629
VleKaka
p5615
sI5630
VleMgI
p5616
sI5631
VleMgpaI
p5617
sI5632
VlePtineMta
p5618
sI5633
VlegA
p5619
sI5634
Vlena
p5620
sI5635
Vletakara
p5621
sI5636
Vletara
p5622
sI5637
VliKa
p5623
sI5638
VliKakara
p5624
sI5639
VliMgabuxI
p5625
sI5640
VliMgametta
p5626
sI5641
VliMgawi
p5627
sI5642
VliMka
p5628
sI5643
VliPta
p5629
sI5644
VlijI
p5630
sI5645
VlimiWaMga
p5631
sI5646
Vlinana
p5632
sI5647
Vlinena
p5633
sI5648
Vlipata
p5634
sI5649
VloParsa
p5635
sI5650
Vloda
p5636
sI5651
VlokagIwa
p5637
sI5652
Vlokanqwya
p5638
sI5653
VlokapriyawA
p5639
sI5654
VlokeSana
p5640
sI5655
VlomadZiyAM
p5641
sI5656
Vlotasa
p5642
sI5657
VluBA
p5643
sI5658
VluBAvanI
p5644
sI5659
VluBAwI
p5645
sI5660
Vluisa
p5646
sI5661
VlumbinI
p5647
sI5662
VmAMgI
p5648
sI5663
VmAMsAhArI
p5649
sI5664
VmAMsapeSiyoM
p5650
sI5665
VmAUMtaAbU
p5651
sI5666
VmAXavana
p5652
sI5667
VmAXopura
p5653
sI5668
VmAXyamoM
p5654
sI5669
VmAigreta
p5655
sI5670
VmAinara
p5656
sI5671
VmAlAoM
p5657
sI5672
VmAlUma
p5658
sI5673
VmAna
p5659
sI5674
VmAnasUnI
p5660
sI5675
VmAnasUna
p5661
sI5676
VmAnasUnoM
p5662
sI5677
VmAnasiMha
p5663
sI5678
VmAnavawA
p5664
sI5679
VmAneM
p5665
sI5680
VmAnyawA
p5666
sI5681
VmArgo
p5667
sI5682
VmAsa
p5668
sI5683
VmAstara
p5669
sI5684
VmAunta
p5670
sI5685
VmAwa
p5671
sI5686
VmAwrA
p5672
sI5687
VmAwra
p5673
sI5688
VmAyAxevI
p5674
sI5689
VmEca
p5675
sI5690
VmEcoM
p5676
sI5691
VmEdama
p5677
sI5692
VmEgI
p5678
sI5693
VmEgnIPAiMga
p5679
sI5694
VmEjika
p5680
sI5695
VmEkalodagaMja
p5681
sI5696
VmEnejiMga
p5682
sI5697
VmEnyualsa
p5683
sI5698
VmEseja
p5684
sI5699
VmEtIriyala
p5685
sI5700
VmIla
p5686
sI5701
VmInAroM
p5687
sI5702
VmIna
p5688
sI5703
VmItiMga
p5689
sI5704
VmOYdarna
p5690
sI5705
VmOYiScarAijara
p5691
sI5706
VmOYnestrIja
p5692
sI5707
VmOYrISasa
p5693
sI5708
VmOYrdana
p5694
sI5709
VmOjUxagI
p5695
sI5710
VmOkoM
p5696
sI5711
VmOlikawaH
p5697
sI5712
VmOsamI
p5698
sI5713
VmUMgA
p5699
sI5714
VmUka
p5700
sI5715
VmUlawaH
p5701
sI5716
VmUrwI
p5702
sI5717
VmUrwikalA
p5703
sI5718
VmUrwiyAM
p5704
sI5719
VmUrwwi
p5705
sI5720
VmUsI
p5706
sI5721
VmUwiryAM
p5707
sI5722
VmUzga
p5708
sI5723
VmUzge
p5709
sI5724
VmaGya
p5710
sI5725
VmaMWalI
p5711
sI5726
VmaMca
p5712
sI5727
VmaMgalAxevI
p5713
sI5728
VmaMgalOra
p5714
sI5729
VmaMgala
p5715
sI5730
VmaMgalavAra
p5716
sI5731
VmaMgavAe
p5717
sI5732
VmaMgavAkara
p5718
sI5733
VmaMgavAwe
p5719
sI5734
VmaMjUra
p5720
sI5735
VmaMjarI
p5721
sI5736
VmaMjilA
p5722
sI5737
VmaMjile
p5723
sI5738
VmaMkI
p5724
sI5739
VmaNI
p5725
sI5740
VmaNikarNa
p5726
sI5741
VmaNipura
p5727
sI5742
VmaSInoM
p5728
sI5743
VmaTa
p5729
sI5744
VmaToM
p5730
sI5745
VmaXura
p5731
sI5746
VmacCaroM
p5732
sI5747
VmacalAne
p5733
sI5748
VmadZagOYva
p5734
sI5749
VmahA
p5735
sI5750
VmahASivarAwri
p5736
sI5751
VmahAboXi
p5737
sI5752
VmahAmAyA
p5738
sI5753
VmahAn
p5739
sI5754
VmahAnagaroM
p5740
sI5755
VmahAparinirvANa
p5741
sI5756
VmahAsAgara
p5742
sI5757
VmahAswUpa
p5743
sI5758
VmahAvana
p5744
sI5759
VmahAxvIpIya
p5745
sI5760
VmahaPila
p5746
sI5761
Vmahaka
p5747
sI5762
VmahallA
p5748
sI5763
VmahawvakAMkRAoM
p5749
sI5764
VmahiRAsura
p5750
sI5765
VmahilAoM
p5751
sI5766
VmahimA
p5752
sI5767
VmahimAmayI
p5753
sI5768
VmajAkiyA
p5754
sI5769
VmajAla
p5755
sI5770
VmajaxUroM
p5756
sI5771
Vmaje
p5757
sI5772
Vmajila
p5758
sI5773
VmakKana
p5759
sI5774
VmakOdZe
p5760
sI5775
VmakarAnA
p5761
sI5776
Vmakara
p5762
sI5777
Vmala
p5763
sI5778
Vmalabe
p5764
sI5779
Vmalaya
p5765
sI5780
VmaleSiyA
p5766
sI5781
VmaleSiyana
p5767
sI5782
VmallIwAla
p5768
sI5783
VmaltIlena
p5769
sI5784
VmanAI
p5770
sI5785
VmanAeM
p5771
sI5786
VmanAwe
p5772
sI5787
VmanAyI
p5773
sI5788
VmanI
p5774
sI5789
VmanamAPika
p5775
sI5790
Vmanamohana
p5776
sI5791
VmanohArI
p5777
sI5792
VmanoraMjaka
p5778
sI5793
Vmanu
p5779
sI5794
VmanuRya
p5780
sI5795
VmanuRyoM
p5781
sI5796
Vmanxa
p5782
sI5797
VmapUsA
p5783
sI5798
VmarAToM
p5784
sI5799
VmarUxyAna
p5785
sI5800
VmaraWaMdZA
p5786
sI5801
Vmariyala
p5787
sI5802
VmarjI
p5788
sI5803
VmasAloM
p5789
sI5804
Vmasalsa
p5790
sI5805
VmasjixeM
p5791
sI5806
VmasjixoM
p5792
sI5807
VmatamEle
p5793
sI5808
Vmatana
p5794
sI5809
Vmatara
p5795
sI5810
VmaxXima
p5796
sI5811
VmaxaxagAra
p5797
sI5812
VmaxinAwula
p5798
sI5813
VmaxirAlayoM
p5799
sI5814
VmeDZI
p5800
sI5815
VmeMbarsa
p5801
sI5816
VmeMcestara
p5802
sI5817
Vmedisina
p5803
sI5818
VmehanawAnA
p5804
sI5819
VmeharAbaxAra
p5805
sI5820
VmeharAboM
p5806
sI5821
VmeharabAna
p5807
sI5822
VmekamAItripa
p5808
sI5823
Vmeksikana
p5809
sI5824
Vmelabarna
p5810
sI5825
Vmelkota
p5811
sI5826
Vmenana
p5812
sI5827
VmerAha
p5813
sI5828
Vmetroja
p5814
sI5829
VmevAdZa
p5815
sI5830
Vmeyo
p5816
sI5831
VmiMjara
p5817
sI5832
Vmidala
p5818
sI5833
Vmijo
p5819
sI5834
Vmiksa
p5820
sI5835
VmilAne
p5821
sI5836
VmilApa
p5822
sI5837
VmilIM
p5823
sI5838
VmilanI
p5824
sI5839
VmilitrI
p5825
sI5840
Vmiliyana
p5826
sI5841
Vmilka
p5827
sI5842
Vminarala
p5828
sI5843
VminikOYya
p5829
sI5844
Vmisra
p5830
sI5845
VmitAne
p5831
sI5846
VmittI
p5832
sI5847
VmiyAxa
p5833
sI5848
VmoInuuxxIna
p5834
sI5849
VmoSana
p5835
sI5850
VmoXarA
p5836
sI5851
Vmohabbawa
p5837
sI5852
Vmohabwa
p5838
sI5853
Vmohammaxa
p5839
sI5854
VmohawAja
p5840
sI5855
VmoinuxxIna
p5841
sI5856
Vmojele
p5842
sI5857
VmolaBAva
p5843
sI5858
Vmonala
p5844
sI5859
VmonpA
p5845
sI5860
Vmora
p5846
sI5861
VmotI
p5847
sI5862
VmotaloM
p5848
sI5863
VmotarasAikala
p5849
sI5864
VmotarasAikila
p5850
sI5865
Vmotarsa
p5851
sI5866
Vmqwyu
p5852
sI5867
Vmqxula
p5853
sI5868
Vmqxulawara
p5854
sI5869
VmuJa
p5855
sI5870
VmuKI
p5856
sI5871
VmuKyaBUmi
p5857
sI5872
VmuKyawa
p5858
sI5873
VmuKyawaH
p5859
sI5874
VmuKyaxvAra
p5860
sI5875
VmuMbrA
p5861
sI5876
VmuPIxa
p5862
sI5877
VmuPwa
p5863
sI5878
VmugXa
p5864
sI5879
VmuhEyyA
p5865
sI5880
Vmukuta
p5866
sI5881
VmulkoM
p5867
sI5882
VmunAPe
p5868
sI5883
Vmuni
p5869
sI5884
VmunnA
p5870
sI5885
VmurAxAbAxa
p5871
sI5886
VmuralI
p5872
sI5887
VmusIbawoM
p5873
sI5888
VmusalamAna
p5874
sI5889
VmuswExa
p5875
sI5890
VmuxrAeM
p5876
sI5891
VmyUjiSana
p5877
sI5892
VmyUniKa
p5878
sI5893
VnAI
p5879
sI5894
VnASwe
p5880
sI5895
VnAWa
p5881
sI5896
VnAgArjuna
p5882
sI5897
VnAgarAja
p5883
sI5898
VnAgara
p5884
sI5899
VnAgarahOYla
p5885
sI5900
VnAgarakola
p5886
sI5901
VnAgarika
p5887
sI5902
VnAgaxevawA
p5888
sI5903
VnAita
p5889
sI5904
VnAitalAiPa
p5890
sI5905
VnAjuka
p5891
sI5906
VnAkASa
p5892
sI5907
VnAka
p5893
sI5908
VnAkebaMxI
p5894
sI5909
VnAla
p5895
sI5910
VnAmakaraNa
p5896
sI5911
VnAmoniSAna
p5897
sI5912
VnAnA
p5898
sI5913
VnAnakasAgara
p5899
sI5914
VnArAyaNa
p5900
sI5915
VnArIwva
p5901
sI5916
VnArWa
p5902
sI5917
VnAtakakAra
p5903
sI5918
VnAu
p5904
sI5919
VnAvikoM
p5905
sI5920
VnAvoM
p5906
sI5921
VnAwA
p5907
sI5922
VnAyaba
p5908
sI5923
VnEpI
p5909
sI5924
VnEpakina
p5910
sI5925
VnEro
p5911
sI5926
VnIMxa
p5912
sI5927
VnIcA
p5913
sI5928
VnIcI
p5914
sI5929
VnIlA
p5915
sI5930
VnIla
p5916
sI5931
VnIlakaMTeSvara
p5917
sI5932
VnIlama
p5918
sI5933
VnIleSa
p5919
sI5934
VnIwiyoM
p5920
sI5935
VnIxaralEMda
p5921
sI5936
VnOjavAna
p5922
sI5937
VnOkAoM
p5923
sI5938
VnOkAvihAra
p5924
sI5939
VnOkuciyA
p5925
sI5940
VnOsiKie
p5926
sI5941
VnUdalsa
p5927
sI5942
VnaMbiyAra
p5928
sI5943
VnaMge
p5929
sI5944
VnaMxAkota
p5930
sI5945
VnaMxI
p5931
sI5946
VnaRta
p5932
sI5947
VnaddI
p5933
sI5948
VnagaroM
p5934
sI5949
Vnaggara
p5935
sI5950
VnajZAre
p5936
sI5951
VnajZAroM
p5937
sI5952
VnajZarie
p5938
sI5953
VnajZaxIkI
p5939
sI5954
VnajaPa
p5940
sI5955
VnakalI
p5941
sI5956
VnakkASiyAz
p5942
sI5957
VnamerI
p5943
sI5958
VnanjanagaDZa
p5944
sI5959
VnarasiMmhA
p5945
sI5960
Vnarma
p5946
sI5961
Vnarsa
p5947
sI5962
Vnasla
p5948
sI5963
VnavAjI
p5949
sI5964
VnavamI
p5950
sI5965
VnavarAwri
p5951
sI5966
VnaxIya
p5952
sI5967
Vnaxa
p5953
sI5968
VnayanABirAma
p5954
sI5969
Vneta
p5955
sI5970
Vnetavarka
p5956
sI5971
Vnevala
p5957
sI5972
Vnevigetara
p5958
sI5973
VniBAI
p5959
sI5974
VniBAyIM
p5960
sI5975
VniHSvAsana
p5961
sI5976
VniKara
p5962
sI5977
VniReXa
p5963
sI5978
VniReXoM
p5964
sI5979
VniRpAxana
p5965
sI5980
VniSAniyoM
p5966
sI5981
VniSciwa
p5967
sI5982
VniSvAsa
p5968
sI5983
VniXi
p5969
sI5984
VnigamoM
p5970
sI5985
VnihArA
p5971
sI5986
VnihAranA
p5972
sI5987
VnihArawe
p5973
sI5988
VnijAmAbAxa
p5974
sI5989
VnikAlA
p5975
sI5990
VnikAlI
p5976
sI5991
VnikAlie
p5977
sI5992
VnikalIM
p5978
sI5993
VnikalanA
p5979
sI5994
Vnikalane
p5980
sI5995
VnikaleMge
p5981
sI5996
Vnikalie
p5982
sI5997
VnikatawA
p5983
sI5998
Vnio
p5984
sI5999
VnipuNawA
p5985
sI6000
VnirASAjanaka
p5986
sI6001
VnirASa
p5987
sI6002
VnirXAriwa
p5988
sI6003
Vniranwara
p5989
sI6004
VnirapavAxa
p5990
sI6005
VnirbAXa
p5991
sI6006
Vnirjana
p5992
sI6007
VnirmANarawa
p5993
sI6008
Vnirmala
p5994
sI6009
VnirnANa
p5995
sI6010
VnirnAsiwa
p5996
sI6011
VnirxeSa
p5997
sI6012
VnirxeSiwa
p5998
sI6013
VnissaMxeha
p5999
sI6014
VnivAsiyoM
p6000
sI6015
Vniwina
p6001
sI6016
VnixeSAlaya
p6002
sI6017
VnixeSaka
p6003
sI6018
VniyAmawoM
p6004
sI6019
Vniyama
p6005
sI6020
VniyamiwawA
p6006
sI6021
VniyamoM
p6007
sI6022
Vniyojiwa
p6008
sI6023
VnotiPikeSana
p6009
sI6024
VnqwyoM
p6010
sI6025
VnyAyAlaya
p6011
sI6026
VnyUja
p6012
sI6027
VnyUnawama
p6013
sI6028
VnyUtrala
p6014
sI6029
VoMkAra
p6015
sI6030
VoSana
p6016
sI6031
VoberOYya
p6017
sI6032
Voesisa
p6018
sI6033
Voke
p6019
sI6034
VoperA
p6020
sI6035
VorAMga
p6021
sI6036
Vosa
p6022
sI6037
VotAna
p6023
sI6038
VpAMcoM
p6024
sI6039
VpAMdicerI
p6025
sI6040
VpAMgI
p6026
sI6041
VpANI
p6027
sI6042
VpANdIcerI
p6028
sI6043
VpATyakrama
p6029
sI6044
VpAUMgA
p6030
sI6045
VpAbaMxI
p6031
sI6046
VpAezge
p6032
sI6047
VpAgala
p6033
sI6048
VpAinepala
p6034
sI6049
VpAireta
p6035
sI6050
VpAiretsa
p6036
sI6051
VpAjeba
p6037
sI6052
VpAka
p6038
sI6053
VpAlama
p6039
sI6054
VpAnA
p6040
sI6055
VpArA
p6041
sI6056
VpArSva
p6042
sI6057
VpArasI
p6043
sI6058
VpArisWiwika
p6044
sI6059
VpArkalEMda
p6045
sI6060
VpArtI
p6046
sI6061
VpArtanarsa
p6047
sI6062
VpAwAlapurI
p6048
sI6063
VpAwIM
p6049
sI6064
VpAwe
p6050
sI6065
VpAxAnoM
p6051
sI6066
VpAxarI
p6052
sI6067
VpAyalata
p6053
sI6068
VpEda
p6054
sI6069
VpEkejesa
p6055
sI6070
VpEkejoM
p6056
sI6071
VpEnI
p6057
sI6072
VpErA
p6058
sI6073
VpErisa
p6059
sI6074
VpEroteta
p6060
sI6075
VpEse
p6061
sI6076
VpEseMjaroM
p6062
sI6077
VpEsiMjaroM
p6063
sI6078
VpEsiPika
p6064
sI6079
VpEsoM
p6065
sI6080
VpEtriksa
p6066
sI6081
VpEveliyana
p6067
sI6082
VpEwqka
p6068
sI6083
VpEwrika
p6069
sI6084
VpExA
p6070
sI6085
VpIDZiyAM
p6071
sI6086
VpIDZiyoM
p6072
sI6087
VpIksa
p6073
sI6088
VpIle
p6074
sI6089
VpInA
p6075
sI6090
VpIpalU
p6076
sI6091
VpIriyada
p6077
sI6092
VpIsa
p6078
sI6093
VpIwe
p6079
sI6094
VpIwsA
p6080
sI6095
VpOYTaMta
p6081
sI6096
VpOYketa
p6082
sI6097
VpOYla
p6083
sI6098
VpU
p6084
sI6099
VpUCa
p6085
sI6100
VpUCakara
p6086
sI6101
VpUCawACa
p6087
sI6102
VpUCawe
p6088
sI6103
VpUCie
p6089
sI6104
VpUMjIvAxa
p6090
sI6105
VpUNe
p6091
sI6106
VpU_rNa
p6092
sI6107
VpUje
p6093
sI6108
VpUrNawaH
p6094
sI6109
VpUrvAnumawi
p6095
sI6110
VpUrvajoM
p6096
sI6111
VpUrvaka
p6097
sI6112
VpUrvowwara
p6098
sI6113
VpaDZAkU
p6099
sI6114
VpaDZI
p6100
sI6115
VpaDZanA
p6101
sI6116
VpaDZawI
p6102
sI6117
VpaDZeM
p6103
sI6118
VpaMcaCUlI
p6104
sI6119
VpaMcakuMda
p6105
sI6120
VpaMcakulA
p6106
sI6121
VpaMcapulA
p6107
sI6122
VpaMjIkaraNa
p6108
sI6123
VpaMjIkqwa
p6109
sI6124
VpaMkaja
p6110
sI6125
VpaMkwi
p6111
sI6126
VpaMpa
p6112
sI6127
VpaMwa
p6113
sI6128
VpaMwanagara
p6114
sI6129
VpaScAwa
p6115
sI6130
VpaWoM
p6116
sI6131
VpaboM
p6117
sI6132
VpadAva
p6118
sI6133
VpadZIM
p6119
sI6134
VpadZeM
p6120
sI6135
VpadZegI
p6121
sI6136
VpadZosI
p6122
sI6137
VpahAdZIyoM
p6123
sI6138
VpahalU
p6124
sI6139
VpahalagAma
p6125
sI6140
VpahanI
p6126
sI6141
VpahuMcAI
p6127
sI6142
VpahuMcAe
p6128
sI6143
VpahuMcAwe
p6129
sI6144
VpahuMcI
p6130
sI6145
VpahuMcakara
p6131
sI6146
VpahuMceM
p6132
sI6147
Vpahuzca
p6133
sI6148
Vpahuzcane
p6134
sI6149
VpahuzcawI
p6135
sI6150
VpajZiSana
p6136
sI6151
VpakA
p6137
sI6152
VpakAnA
p6138
sI6153
VpakAyA
p6139
sI6154
VpakOdZe
p6140
sI6155
VpakadZanA
p6141
sI6156
VpakadZane
p6142
sI6157
VpalapAyasama
p6143
sI6158
Vpalolama
p6144
sI6159
Vpanape
p6145
sI6160
Vpanavela
p6146
sI6161
VpannA
p6147
sI6162
VpannoM
p6148
sI6163
VparAjaya
p6149
sI6164
VparAvarwana
p6150
sI6165
VparIkRaNa
p6151
sI6166
VparaCAIM
p6152
sI6167
VparaMparAgawa
p6153
sI6168
VparaPyUma
p6154
sI6169
Vparawa
p6155
sI6170
VpareSAniyAM
p6156
sI6171
Vpareda
p6157
sI6172
VpariNAma
p6158
sI6173
Vpariciwa
p6159
sI6174
VparikramA
p6160
sI6175
VparipaWa
p6161
sI6176
VparisImiwa
p6162
sI6177
Vparisara
p6163
sI6178
VparivAroM
p6164
sI6179
Vparivahana
p6165
sI6180
VparivarwIwa
p6166
sI6181
Vpariwyakwa
p6167
sI6182
VparixqSya
p6168
sI6183
VpariyojanA
p6169
sI6184
Vparla
p6170
sI6185
Vparsa
p6171
sI6186
Vparsanala
p6172
sI6187
Vparva
p6173
sI6188
VparxA
p6174
sI6189
Vparxe
p6175
sI6190
VparxoM
p6176
sI6191
VparyApwa
p6177
sI6192
Vparyanwa
p6178
sI6193
Vparyatako
p6179
sI6194
Vpata
p6180
sI6195
VpatanA
p6181
sI6196
VpatarI
p6182
sI6197
Vpatela
p6183
sI6198
VpattI
p6184
sI6199
VpattiyAz
p6185
sI6200
VpaviwrawA
p6186
sI6201
VpawaJadZI
p6187
sI6202
VpawaMga
p6188
sI6203
VpawalI
p6189
sI6204
Vpawana
p6190
sI6205
Vpawra
p6191
sI6206
VpawrakAroM
p6192
sI6207
Vpawwana
p6193
sI6208
Vpawwe
p6194
sI6209
Vpaxa
p6195
sI6210
Vpaxama
p6196
sI6211
VpaxasWa
p6197
sI6212
VpaxavI
p6198
sI6213
VpaxayAwrA
p6199
sI6214
VpaxmasaMBava
p6200
sI6215
VpayasvEnI
p6201
sI6216
VpeMSanarsa
p6202
sI6217
VpeMnAga
p6203
sI6218
VpeMtara
p6204
sI6219
VpeSakaSoM
p6205
sI6220
VpeSevara
p6206
sI6221
Vpedala
p6207
sI6222
VpemeMta
p6208
sI6223
Vpensa
p6209
sI6224
Vpeparavarka
p6210
sI6225
VperUnnala
p6211
sI6226
Vperisa
p6212
sI6227
Vpero
p6213
sI6228
Vpeta
p6214
sI6229
VpetapUjA
p6215
sI6230
Vpeyara
p6216
sI6231
VpiMpadZI
p6217
sI6232
VpiWOrAgaDZa
p6218
sI6233
VpieM
p6219
sI6234
VpilA
p6220
sI6235
VpilAne
p6221
sI6236
VpinnavalA
p6222
sI6237
VpittI
p6223
sI6238
VplAMteSana
p6224
sI6239
VplAMtiMga
p6225
sI6240
VplEna
p6226
sI6241
VplIjZa
p6227
sI6242
Vple
p6228
sI6243
VpoMCane
p6229
sI6244
VpoMgA
p6230
sI6245
VpoRaNa
p6231
sI6246
VpoSAkoM
p6232
sI6247
VpolunavArA
p6233
sI6248
Vpopa
p6234
sI6249
Vposta
p6235
sI6250
VprAMgaNa
p6236
sI6251
VprAMwa
p6237
sI6252
VprANijAwi
p6238
sI6253
VprAcInakAla
p6239
sI6254
VprAcInawama
p6240
sI6255
VprAisa
p6241
sI6256
VprAraMBa
p6242
sI6257
VprAwaH
p6243
sI6258
VprIjarva
p6244
sI6259
VprImiyama
p6245
sI6260
VprOYblamsa
p6246
sI6261
VprOYjekta
p6247
sI6262
VprOYpara
p6248
sI6263
VpraBAga
p6249
sI6264
VpraBAwa
p6250
sI6265
VpraKara
p6251
sI6266
VpraSAMwa
p6252
sI6267
VpraSikRaNa
p6253
sI6268
VprabaMXanoM
p6254
sI6269
VprabalawA
p6255
sI6270
Vpracura
p6256
sI6271
Vpragawi
p6257
sI6272
VprajApawi
p6258
sI6273
VprajAwiyAz
p6259
sI6274
VprakASama
p6260
sI6275
Vprakata
p6261
sI6276
VprakqRta
p6262
sI6277
VprakriyA
p6263
sI6278
VprakriyAoM
p6264
sI6279
Vpralamba
p6265
sI6280
VpramANa
p6266
sI6281
VpramoSana
p6267
sI6282
Vpramota
p6268
sI6283
VpramuKawA
p6269
sI6284
VprapAwoM
p6270
sI6285
VpraraMBika
p6271
sI6286
VprasAxa
p6272
sI6287
VprasWAna
p6273
sI6288
VprasaMgoM
p6274
sI6289
VprasixXi
p6275
sI6290
VpraswAviwa
p6276
sI6291
Vpraswuwi
p6277
sI6292
VpraswuwikaraNa
p6278
sI6293
VpravAla
p6279
sI6294
VpravAsI
p6280
sI6295
Vpravarwiwa
p6281
sI6296
VpraveSaxvAra
p6282
sI6297
Vpravqwwa
p6283
sI6298
VprawiBA
p6284
sI6299
VprawiBAgiyoM
p6285
sI6300
Vprawibimba
p6286
sI6301
VprawihAroM
p6287
sI6302
VprawikriyA
p6288
sI6303
VprawimA
p6289
sI6304
VprawimAha
p6290
sI6305
VprawiniXiwva
p6291
sI6306
VprawiroXa
p6292
sI6307
VprawiyogI
p6293
sI6308
VprawyakRawaH
p6294
sI6309
VpraxURaNa
p6295
sI6310
VpraxURiwa
p6296
sI6311
VpraxarSanakArI
p6297
sI6312
VpraxarSanoM
p6298
sI6313
Vprayojana
p6299
sI6314
VpreRaka
p6300
sI6315
VpregnaMta
p6301
sI6316
VprekRakoM
p6302
sI6317
Vprema
p6303
sI6318
VpreraNAwmaka
p6304
sI6319
VpreraNAxAyaka
p6305
sI6320
VpriMsa
p6306
sI6321
VprowsAhana
p6307
sI6322
VprowsAhiwa
p6308
sI6323
VpuNya
p6309
sI6324
VpunAKA
p6310
sI6325
VpunaH
p6311
sI6326
VpurAleKika
p6312
sI6327
VpurAvaSeRa
p6313
sI6328
VpurAwAwwvika
p6314
sI6329
VpurAwana
p6315
sI6330
VpurAwanika
p6316
sI6331
VpurI
p6317
sI6332
VpurUvI
p6318
sI6333
VpurwagAla
p6319
sI6334
Vputa
p6320
sI6335
Vpuwra
p6321
sI6336
VrAPta
p6322
sI6337
VrAPtoM
p6323
sI6338
VrARtrIyauxyAna
p6324
sI6339
VrARtrIyawA
p6325
sI6340
VrAXA
p6326
sI6341
VrAga
p6327
sI6342
VrAha
p6328
sI6343
VrAhawakArI
p6329
sI6344
VrAidiMga
p6330
sI6345
VrAija
p6331
sI6346
VrAjaGAta
p6332
sI6347
VrAjaGAtaH
p6333
sI6348
VrAjagIroM
p6334
sI6349
VrAjakAla
p6335
sI6350
VrAjanIwijFoM
p6336
sI6351
VrAjapUwoM
p6337
sI6352
VrAjaraMBA
p6338
sI6353
VrAjasWAnI
p6339
sI6354
VrAjeMxra
p6340
sI6355
VrAjjI
p6341
sI6356
VrAkeSa
p6342
sI6357
VrAmacaMxrana
p6343
sI6358
VrAmanAWapurama
p6344
sI6359
VrAmapura
p6345
sI6360
VrAmasewu
p6346
sI6361
VrAmeSvara
p6347
sI6362
VrAmohallI
p6348
sI6363
VrAniyoM
p6349
sI6364
VrAwoM
p6350
sI6365
VrAwrI
p6351
sI6366
VrAwrikAlIna
p6352
sI6367
VrAyacUra
p6353
sI6368
VrAyakara
p6354
sI6369
VrEdietara
p6355
sI6370
VrEgalInI
p6356
sI6371
VrEliMga
p6357
sI6372
VrEliyAz
p6358
sI6373
VrEliyoM
p6359
sI6374
VrIPa
p6360
sI6375
VrIjanebala
p6361
sI6376
VrIwibaxXa
p6362
sI6377
VrOnaka
p6363
sI6378
VrSatsa
p6364
sI6379
VrUla
p6365
sI6380
VrUpAMkiwa
p6366
sI6381
VrUpoM
p6367
sI6382
VrUsa
p6368
sI6383
VrUtIna
p6369
sI6384
VrUxrapura
p6370
sI6385
VraKAwA
p6371
sI6386
VraKavAlI
p6372
sI6387
VraKie
p6373
sI6388
VraKiegA
p6374
sI6389
VraMgA
p6375
sI6390
VraMgAnAWIttU
p6376
sI6391
VraMgAraMga
p6377
sI6392
VraMgIle
p6378
sI6393
VraMgabiraMgA
p6379
sI6394
VraMganA
p6380
sI6395
VraMgane
p6381
sI6396
VraMjanA
p6382
sI6397
VraNa
p6383
sI6398
VraNanIwi
p6384
sI6399
VraNawuMgA
p6385
sI6400
Vrabara
p6386
sI6401
VracanA
p6387
sI6402
VracanAoM
p6388
sI6403
Vrace
p6389
sI6404
Vraciwa
p6390
sI6405
Vrahasya
p6391
sI6406
Vrahasyamaya
p6392
sI6407
VrahasyapUrNa
p6393
sI6408
VrahasyoM
p6394
sI6409
Vrajistara
p6395
sI6410
VrakRA
p6396
sI6411
VrakRaka
p6397
sI6412
VrakRiwa
p6398
sI6413
VramIwaya
p6399
sI6414
VramaNIya
p6400
sI6415
VramagIna
p6401
sI6416
VramanagrAma
p6402
sI6417
VrarinajiMxA
p6403
sI6418
VrasAsvAxana
p6404
sI6419
VrasIxeM
p6405
sI6420
VrassEla
p6406
sI6421
VrassiyZoM
p6407
sI6422
VravivAra
p6408
sI6423
VreKAeM
p6409
sI6424
VreSA
p6410
sI6425
VreSama
p6411
sI6426
VredI
p6412
sI6427
VredImeda
p6413
sI6428
VregiswAnoM
p6414
sI6429
VrejOYrta
p6415
sI6430
VrejidensI
p6416
sI6431
VrekOYrda
p6417
sI6432
VrelagAdZI
p6418
sI6433
VrelagAdZiyoM
p6419
sI6434
Vrelaheda
p6420
sI6435
VrenArda
p6421
sI6436
VrenI
p6422
sI6437
Vrena
p6423
sI6438
VresOYrta
p6424
sI6439
VrewI
p6425
sI6440
VriJAegI
p6426
sI6441
VriJAne
p6427
sI6442
VriPreSa
p6428
sI6443
VriSwexAroM
p6429
sI6444
VriekSana
p6430
sI6445
Vriekta
p6431
sI6446
VrijZarvsa
p6432
sI6447
VrikwIkaraNa
p6433
sI6448
VrilEkseSana
p6434
sI6449
Vrilijansa
p6435
sI6450
Vriporta
p6436
sI6451
VrisOYEYrta
p6437
sI6452
Vriska
p6438
sI6453
Vrisortsa
p6439
sI6454
VrispOYnsibala
p6440
sI6455
Vrixama
p6441
sI6456
VriyAsaweM
p6442
sI6457
VriyAyawI
p6443
sI6458
VriyAyawoM
p6444
sI6459
VrodZa
p6445
sI6460
Vrodaveja
p6446
sI6461
Vrogana
p6447
sI6462
VrojI
p6448
sI6463
Vrojara
p6449
sI6464
VrokanA
p6450
sI6465
Vrolara
p6451
sI6466
VromAMcakArI
p6452
sI6467
VromAMciwa
p6453
sI6468
VromAMsa
p6454
sI6469
VromAnsa
p6455
sI6470
VromAntika
p6456
sI6471
Vroma
p6457
sI6472
VropaNa
p6458
sI6473
VrotI
p6459
sI6474
Vrskatsa
p6460
sI6475
Vruci
p6461
sI6476
VruhAnI
p6462
sI6477
Vrukawe
p6463
sI6478
VrukeM
p6464
sI6479
VrumasU
p6465
sI6480
VrunakwA
p6466
sI6481
VrupayA
p6467
sI6482
VrutIna
p6468
sI6483
Vrutasa
p6469
sI6484
Vrvalda
p6470
sI6485
VsAIva
p6471
sI6486
VsAIyA
p6472
sI6487
VsAMgalA
p6473
sI6488
VsAMpa
p6474
sI6489
VsAMpoM
p6475
sI6490
VsATa
p6476
sI6491
VsAWI
p6477
sI6492
VsAXane
p6478
sI6493
VsAdZiyo
p6479
sI6494
VsAgOna
p6480
sI6495
VsAhasakarma
p6481
sI6496
VsAhasikawA
p6482
sI6497
VsAhila
p6483
sI6498
VsAiMsa
p6484
sI6499
VsAikila
p6485
sI6500
VsAina
p6486
sI6501
VsAitasIna
p6487
sI6502
VsAlAnA
p6488
sI6503
VsAlaBara
p6489
sI6504
VsAmAnoM
p6490
sI6505
VsAmAnyawayA
p6491
sI6506
VsAmaMwa
p6492
sI6507
VsAmrAjyavAxa
p6493
sI6508
VsAmuI
p6494
sI6509
VsAngawsena
p6495
sI6510
VsAra
p6496
sI6511
VsArahAna
p6497
sI6512
VsArasenika
p6498
sI6513
VsAsanagIra
p6499
sI6514
VsAvaXAnIpUrvaka
p6500
sI6515
VsAvaXAniyAM
p6501
sI6516
VsAwavIM
p6502
sI6517
VsAwaveM
p6503
sI6518
VsAxA
p6504
sI6519
VsAxAbAxa
p6505
sI6520
VsAxI
p6506
sI6521
VsAyaMkAla
p6507
sI6522
VsAye
p6508
sI6523
VsEMkcurI
p6509
sI6524
VsEMta
p6510
sI6525
VsEPAyara
p6511
sI6526
VsElarI
p6512
sI6527
VsElarIda
p6513
sI6528
VsEleda
p6514
sI6529
VsEmyuela
p6515
sI6530
VsIDZInumA
p6516
sI6531
VsIDZiyAz
p6517
sI6532
VsIKA
p6518
sI6533
VsIKeMge
p6519
sI6534
VsIMgoM
p6520
sI6535
VsIPUda
p6521
sI6536
VsIdIjZa
p6522
sI6537
VsIiMga
p6523
sI6538
VsIjarsa
p6524
sI6539
VsImAcihna
p6525
sI6540
VsImAeM
p6526
sI6541
VsImacinha
p6527
sI6542
VsIna
p6528
sI6543
VsIrIjZa
p6529
sI6544
VsIrIja
p6530
sI6545
VsIriyasa
p6531
sI6546
VsOBAgyaSAlI
p6532
sI6547
VsORTava
p6533
sI6548
VsOXa
p6534
sI6549
VsOYksa
p6535
sI6550
VsPUrwixAyaka
p6536
sI6551
VsUJa
p6537
sI6552
VsUkRma
p6538
sI6553
VsUraxAsa
p6539
sI6554
VsUryA
p6540
sI6555
VsUryakAnwamaNI
p6541
sI6556
VsUtsa
p6542
sI6557
VsWajFanIya
p6543
sI6558
VsWalI
p6544
sI6559
VsWira
p6545
sI6560
VsaBA
p6546
sI6561
VsaBya
p6547
sI6562
VsaKwa
p6548
sI6563
VsaMBAla
p6549
sI6564
VsaMBAvanA
p6550
sI6565
VsaMBAvanAeM
p6551
sI6566
VsaMBala
p6552
sI6567
VsaMBalane
p6553
sI6568
VsaMBava
p6554
sI6569
VsaMBavawa
p6555
sI6570
VsaMGataka
p6556
sI6571
VsaMbaMXiwa
p6557
sI6572
VsaMbaxXa
p6558
sI6573
VsaMcAlaka
p6559
sI6574
VsaMcAlana
p6560
sI6575
VsaMgaTiwa
p6561
sI6576
VsaMgalA
p6562
sI6577
VsaMginI
p6563
sI6578
VsaMgrAhAlaya
p6564
sI6579
VsaMgrAma
p6565
sI6580
VsaMgrahAlayoM
p6566
sI6581
VsaMgrahiwa
p6567
sI6582
VsaMjarI
p6568
sI6583
VsaMjara
p6569
sI6584
VsaMkalana
p6570
sI6585
VsaMkarI
p6571
sI6586
VsaMkewa
p6572
sI6587
VsaMkrAMwi
p6573
sI6588
VsaMkrAwI
p6574
sI6589
VsaMlagna
p6575
sI6590
VsaMmiSraNa
p6576
sI6591
VsaMpUrNa
p6577
sI6592
VsaMracanAgawa
p6578
sI6593
VsaMrakRaNavAxI
p6579
sI6594
VsaMrakRakoM
p6580
sI6595
VsaMsWA
p6581
sI6596
VsaMsWAeM
p6582
sI6597
VsaMsWAna
p6583
sI6598
VsaMsWApaka
p6584
sI6599
VsaMsaxa
p6585
sI6600
VsaMskAroM
p6586
sI6601
VsaMvAxaxAwA
p6587
sI6602
VsaMvexanaSIlawA
p6588
sI6603
VsaMware
p6589
sI6604
VsaMxIpa
p6590
sI6605
VsaMxeSa
p6591
sI6606
VsaMyojana
p6592
sI6607
VsaPa
p6593
sI6608
VsaPersa
p6594
sI6609
VsaXe
p6595
sI6610
VsabakA
p6596
sI6611
Vsabake
p6597
sI6612
VsabarImAlA
p6598
sI6613
VsabbaravAla
p6599
sI6614
VsabjI
p6600
sI6615
VsabjiyAM
p6601
sI6616
VsabjiyoM
p6602
sI6617
VsabsidI
p6603
sI6618
Vsaca
p6604
sI6619
VsaccAI
p6605
sI6620
VsadZakeM
p6606
sI6621
Vsage
p6607
sI6622
VsahArA
p6608
sI6623
VsahAyaka
p6609
sI6624
VsahAyawA
p6610
sI6625
Vsaha
p6611
sI6626
Vsahaja
p6612
sI6627
Vsahamawa
p6613
sI6628
Vsahamawi
p6614
sI6629
VsahanIya
p6615
sI6630
Vsahayoga
p6616
sI6631
Vsahiba
p6617
sI6632
VsahyaxI
p6618
sI6633
VsajA
p6619
sI6634
VsajAkara
p6620
sI6635
VsajAne
p6621
sI6636
VsajAvata
p6622
sI6637
VsajIva
p6623
sI6638
Vsajaga
p6624
sI6639
VsakArAwmaka
p6625
sI6640
VsakRama
p6626
sI6641
Vsakane
p6627
sI6642
VsalAxina
p6628
sI6643
VsaletI
p6629
sI6644
VsamA
p6630
sI6645
VsamAM
p6631
sI6646
VsamAXiyAM
p6632
sI6647
VsamAXiyoM
p6633
sI6648
VsamAhiwa
p6634
sI6649
VsamAja
p6635
sI6650
VsamAnawA
p6636
sI6651
VsamUcA
p6637
sI6652
VsamaJanA
p6638
sI6653
VsamaJe
p6639
sI6654
VsamaJeM
p6640
sI6655
VsamarWana
p6641
sI6656
Vsamara
p6642
sI6657
VsamarasawA
p6643
sI6658
VsamarpaNa
p6644
sI6659
Vsamasvariwa
p6645
sI6660
VsamasyAeM
p6646
sI6661
VsamasyAoM
p6647
sI6662
Vsamaxa
p6648
sI6663
VsamayAvaXi
p6649
sI6664
VsamayAvaXiyoM
p6650
sI6665
VsambaMXI
p6651
sI6666
VsambaMXiwa
p6652
sI6667
Vsamita
p6653
sI6668
VsammiSraNa
p6654
sI6669
Vsamparka
p6655
sI6670
VsamqxXawama
p6656
sI6671
VsamqxXi
p6657
sI6672
VsamrAtoM
p6658
sI6673
VsamuxrawatIya
p6659
sI6674
Vsan
p6660
sI6675
VsanalAita
p6661
sI6676
Vsanaseta
p6662
sI6677
VsanasitI
p6663
sI6678
Vsanave
p6664
sI6679
Vsapre
p6665
sI6680
VsapwAha
p6666
sI6681
VsarAbora
p6667
sI6682
VsarAhawe
p6668
sI6683
VsarIsqpoM
p6669
sI6684
VsarabajIwa
p6670
sI6685
Vsaralawama
p6671
sI6686
Vsarapata
p6672
sI6687
Vsarasvawi
p6673
sI6688
VsarpA
p6674
sI6689
VsarpIlI
p6675
sI6690
VsarvA
p6676
sI6691
VsarvapraWama
p6677
sI6692
VsarvekRaNa
p6678
sI6693
VsarvoMwwama
p6679
sI6694
VsarxI
p6680
sI6695
VsarxiyAM
p6681
sI6696
VsaspeMSana
p6682
sI6697
Vsate
p6683
sI6698
Vsavere
p6684
sI6699
VsawaheM
p6685
sI6700
Vsawaluja
p6686
sI6701
Vsawawa
p6687
sI6702
Vsawra
p6688
sI6703
VsawroM
p6689
sI6704
Vsaxarna
p6690
sI6705
Vsaxasya
p6691
sI6706
VsaxasyawA
p6692
sI6707
Vsaxupayoga
p6693
sI6708
VsayAjI
p6694
sI6709
VsePa
p6695
sI6710
VseSaMsa
p6696
sI6711
VsebAsiyana
p6697
sI6712
Vseba
p6698
sI6713
VsegameMta
p6699
sI6714
VselaPona
p6700
sI6715
Vselibreta
p6701
sI6716
VsemI
p6702
sI6717
VseminarI
p6703
sI6718
VseremanI
p6704
sI6719
VsevAeM
p6705
sI6720
VsevAez
p6706
sI6721
Vseva
p6707
sI6722
VsiKAI
p6708
sI6723
VsiKAwe
p6709
sI6724
VsiMgala
p6710
sI6725
VsiMka
p6711
sI6726
VsicueSana
p6712
sI6727
VsikKoM
p6713
sI6728
Vsikanesa
p6714
sI6729
VsikanxarAbAxa
p6715
sI6730
VsikudZane
p6716
sI6731
VsikyoritI
p6717
sI6732
VsilikOYna
p6718
sI6733
Vsilikana
p6719
sI6734
Vsimbola
p6720
sI6735
Vsinetoriyama
p6721
sI6736
VsipAhiyoM
p6722
sI6737
VsirPZa
p6723
sI6738
Vsira
p6724
sI6739
VsitAdela
p6725
sI6740
VsitIja
p6726
sI6741
Vsitrasa
p6727
sI6742
VsiwArA
p6728
sI6743
VsiwAroM
p6729
sI6744
VsiyAcina
p6730
sI6745
VskImoM
p6731
sI6746
VskImsa
p6732
sI6747
VskU
p6733
sI6748
VskUtarsa
p6734
sI6749
VskaMxa
p6735
sI6750
Vskalpacarsa
p6736
sI6751
Vskaveyara
p6737
sI6752
Vskepsa
p6738
sI6753
Vskida
p6739
sI6754
Vskilda
p6740
sI6755
Vskilsa
p6741
sI6756
VskvAyara
p6742
sI6757
Vskveyara
p6743
sI6758
VslIvalesa
p6744
sI6759
VslOYta
p6745
sI6760
VslaSa
p6746
sI6761
Vslopa
p6747
sI6762
Vslopsa
p6748
sI6763
VsmArakoM
p6749
sI6764
VsmiWa
p6750
sI6765
VsmqwiyoM
p6751
sI6766
VsnAkela
p6752
sI6767
VsnIkarsa
p6753
sI6768
Vsneha
p6754
sI6769
Vso
p6755
sI6770
VsoSala
p6756
sI6771
VsocA
p6757
sI6772
VsocI
p6758
sI6773
Vsocakara
p6759
sI6774
Vsocawe
p6760
sI6775
VsoceMge
p6761
sI6776
Vsocie
p6762
sI6777
VsoeM
p6763
sI6778
VsohanaMga
p6764
sI6779
Vsokara
p6765
sI6780
Vsolana
p6766
sI6781
Vsolara
p6767
sI6782
VsolyUSana
p6768
sI6783
Vsoma
p6769
sI6784
VsomanAWa
p6770
sI6785
VsomanAWapura
p6771
sI6786
VsomavAra
p6772
sI6787
VsomeSvara
p6773
sI6788
VsomorIrI
p6774
sI6789
VsonI
p6775
sI6790
Vsonamarga
p6776
sI6791
VsopAna
p6777
sI6792
Vsowe
p6778
sI6793
VspAja
p6779
sI6794
VspAuja
p6780
sI6795
VspIdabota
p6781
sI6796
VspIwI
p6782
sI6797
VspIwi
p6783
sI6798
VspaMjoM
p6784
sI6799
VspaRta
p6785
sI6800
VspaRtawaH
p6786
sI6801
VspeSalitI
p6787
sI6802
VsportI
p6788
sI6803
Vsporta
p6789
sI6804
VspriMga
p6790
sI6805
VsqRtI
p6791
sI6806
VsqjanAwmaka
p6792
sI6807
Vsqjana
p6793
sI6808
VsqjanakarwA
p6794
sI6809
Vsqjiwa
p6795
sI6810
VstAila
p6796
sI6811
VstArta
p6797
sI6812
VstElina
p6798
sI6813
VstIla
p6799
sI6814
VstImara
p6800
sI6815
VstadI
p6801
sI6816
Vsteara
p6802
sI6817
Vstediyama
p6803
sI6818
Vsteja
p6804
sI6819
Vstena
p6805
sI6820
Vstenalesa
p6806
sI6821
Vstonsa
p6807
sI6822
Vstorsa
p6808
sI6823
VstrIma
p6809
sI6824
VsuIyoM
p6810
sI6825
VsuKaxAyI
p6811
sI6826
VsuKaxeva
p6812
sI6827
VsuMxaranagara
p6813
sI6828
VsuMxariyAM
p6814
sI6829
VsuSoBiwa
p6815
sI6830
VsuXAraka
p6816
sI6831
VsuXArana
p6817
sI6832
VsuXaregI
p6818
sI6833
Vsuara
p6819
sI6834
VsudOlapana
p6820
sI6835
Vsugamya
p6821
sI6836
VsugamyawA
p6822
sI6837
VsuhAnA
p6823
sI6838
VsuhAvanI
p6824
sI6839
VsujIwa
p6825
sI6840
VsulaJane
p6826
sI6841
VsulawAnA
p6827
sI6842
VsunAne
p6828
sI6843
VsunI
p6829
sI6844
VsunIla
p6830
sI6845
Vsunane
p6831
sI6846
VsunxarawApUrvaka
p6832
sI6847
Vsupara
p6833
sI6848
Vsuparaeksapresa
p6834
sI6849
VsuparamArkita
p6835
sI6850
VsuprasixXa
p6836
sI6851
VsurIle
p6837
sI6852
VsurUra
p6838
sI6853
Vsura
p6839
sI6854
VsuraMgoM
p6840
sI6855
Vsusajjiwa
p6841
sI6856
VsuswA
p6842
sI6857
Vsuswa
p6843
sI6858
VsuvAsiwa
p6844
sI6859
Vsuviswqwa
p6845
sI6860
VsuvyavasWiwa
p6846
sI6861
VsvAmI
p6847
sI6862
VsvAxiRta
p6848
sI6863
VsvIta
p6849
sI6864
VsvacCaMxa
p6850
sI6865
Vsvapna
p6851
sI6866
VsvarNa
p6852
sI6867
Vsvarupa
p6853
sI6868
VsvaxeSI
p6854
sI6869
VsvayaM
p6855
sI6870
Vsvisa
p6856
sI6871
VswaMBasamUhoM
p6857
sI6872
VswaMBoM
p6858
sI6873
VswabXa
p6859
sI6874
Vswrowa
p6860
sI6875
VtAIdsa
p6861
sI6876
VtAbo
p6862
sI6877
VtAilata
p6863
sI6878
VtAimara
p6864
sI6879
VtAla
p6865
sI6880
VtApU
p6866
sI6881
VtAuna
p6867
sI6882
VtAunaSipa
p6868
sI6883
VtEksiyAM
p6869
sI6884
VtEksiyoM
p6870
sI6885
VtEniMga
p6871
sI6886
VtOYpalesa
p6872
sI6887
VtOYvarsa
p6873
sI6888
VtUrastisa
p6874
sI6889
VtUroM
p6875
sI6890
VtUtI
p6876
sI6891
VtakatakI
p6877
sI6892
VtamAtara
p6878
sI6893
VteDZI
p6879
sI6894
VteMSana
p6880
sI6895
VteMparecara
p6881
sI6896
VtebalatOYpa
p6882
sI6897
VtebaloM
p6883
sI6898
VtedI
p6884
sI6899
VteksAjZa
p6885
sI6900
VtelIkOYnPreMsiMga
p6886
sI6901
VtelikAsta
p6887
sI6902
Vtempala
p6888
sI6903
VteratarI
p6889
sI6904
VtiSyU
p6890
sI6905
VtikAU
p6891
sI6906
Vtika
p6892
sI6907
VtikateM
p6893
sI6908
VtikatiMga
p6894
sI6909
VtimatimAwe
p6895
sI6910
Vtonsa
p6896
sI6911
VtrAPiyAz
p6897
sI6912
VtrAuta
p6898
sI6913
VtrEvalaroM
p6899
sI6914
VtrUpa
p6900
sI6915
VtrakoM
p6901
sI6916
Vtrampa
p6902
sI6917
VtreMdI
p6903
sI6918
Vtreda
p6904
sI6919
Vtrekara
p6905
sI6920
VtrekoM
p6906
sI6921
Vtrelsa
p6907
sI6922
Vtrenara
p6908
sI6923
VtreniMga
p6909
sI6924
Vtrevarsa
p6910
sI6925
Vtu
p6911
sI6926
Vturista
p6912
sI6927
VtusAdsa
p6913
sI6928
Vtvina
p6914
sI6929
VuBarawe
p6915
sI6930
VuBayacara
p6916
sI6931
VuCAla
p6917
sI6932
VuCala
p6918
sI6933
VuMGawe
p6919
sI6934
VuMgaliyAM
p6920
sI6935
VuMgaliyoM
p6921
sI6936
VuTAI
p6922
sI6937
VuTAe
p6923
sI6938
VuTAeM
p6924
sI6939
VuTApataka
p6925
sI6940
VuTakara
p6926
sI6941
VuTanA
p6927
sI6942
VuTane
p6928
sI6943
VuTawA
p6929
sI6944
VuTawe
p6930
sI6945
VuTe
p6931
sI6946
VuXamasiMha
p6932
sI6947
VuXara
p6933
sI6948
VubArane
p6934
sI6949
VubalA
p6935
sI6950
Vuccawama
p6936
sI6951
Vuccawara
p6937
sI6952
VudZAne
p6938
sI6953
VudZawI
p6939
sI6954
VudZawe
p6940
sI6955
Vugane
p6941
sI6956
VugawA
p6942
sI6957
Vugawe
p6943
sI6958
Vugrawama
p6944
sI6959
VujarA
p6945
sI6960
Vujjavala
p6946
sI6961
VulaJa
p6947
sI6962
VulasUra
p6948
sI6963
VullAsakArI
p6949
sI6964
VulliKiwa
p6950
sI6965
VultA
p6951
sI6966
Vumiyama
p6952
sI6967
Vunhone
p6953
sI6968
VunmAxa
p6954
sI6969
VupAXyakRa
p6955
sI6970
VupAya
p6956
sI6971
VupajI
p6957
sI6972
Vupakenxra
p6958
sI6973
Vupakrama
p6959
sI6974
VupamA
p6960
sI6975
VupamahAxvIpa
p6961
sI6976
VupanAma
p6962
sI6977
VupavanoM
p6963
sI6978
VupaxeSa
p6964
sI6979
VupayogI
p6965
sI6980
VupoRNa
p6966
sI6981
VupoRNakatibaMXIya
p6967
sI6982
VuppAdA
p6968
sI6983
Vurvara
p6969
sI6984
Vusako
p6970
sI6985
VuttAnaWulala
p6971
sI6986
VuwArane
p6972
sI6987
Vuwane
p6973
sI6988
Vuwara
p6974
sI6989
Vuwarakara
p6975
sI6990
VuwkqRtawApUrvaka
p6976
sI6991
VuwpAxa
p6977
sI6992
VuwpAxaka
p6978
sI6993
VuwpAxiwa
p6979
sI6994
VuwpAxoM
p6980
sI6995
Vuwpawwi
p6981
sI6996
VuwsavoM
p6982
sI6997
Vuwwapama
p6983
sI6998
VuwwarakAla
p6984
sI6999
VuwwarapUrvI
p6985
sI7000
Vuwwejaka
p6986
sI7001
VuwwuMga
p6987
sI7002
VuxAharaNoM
p6988
sI7003
VuxBUwa
p6989
sI7004
VuxGAtana
p6990
sI7005
VuxahAraNa
p6991
sI7006
Vuxgama
p6992
sI7007
Vuxiwa
p6993
sI7008
VuxxeSya
p6994
sI7009
VuxyamiyoM
p6995
sI7010
VuxyorAlaya
p6996
sI7011
VvAIsarIgala
p6997
sI7012
VvAMCanIya
p6998
sI7013
VvAMCiwa
p6999
sI7014
VvAcatOYvara
p7000
sI7015
VvAciMga
p7001
sI7016
VvAibreMta
p7002
sI7017
VvAina
p7003
sI7018
VvAjiba
p7004
sI7019
VvAkiPa
p7005
sI7020
VvAmanoM
p7006
sI7021
VvAmapaMWa
p7007
sI7022
VvAmapaMWiyoM
p7008
sI7023
VvAnadUra
p7009
sI7024
VvAnikI
p7010
sI7025
VvArANasI
p7011
sI7026
VvAsa
p7012
sI7027
VvAsiyoM
p7013
sI7028
VvAsko
p7014
sI7029
VvAsukiwAla
p7015
sI7030
VvAsuxeva
p7016
sI7031
VvAswavikawA
p7017
sI7032
VvAswu
p7018
sI7033
VvAswuSilpIya
p7019
sI7034
VvAswuSilpa
p7020
sI7035
VvAswukAra
p7021
sI7036
VvAswuvix
p7022
sI7037
VvAtikA
p7023
sI7038
VvAxiyAM
p7024
sI7039
VvAxoM
p7025
sI7040
VvAyusevAoM
p7026
sI7041
VvEBava
p7027
sI7042
VvERNo
p7028
sI7043
VvEksa
p7029
sI7044
VvElyU
p7030
sI7045
VvEna
p7031
sI7046
VvEviXyapUrNa
p7032
sI7047
VvIjAoM
p7033
sI7048
VvIjZA
p7034
sI7049
VvIragAWA
p7035
sI7050
VvOYkiMga
p7036
sI7051
VvOYlIbOYla
p7037
sI7052
VvOYlaMtiyara
p7038
sI7053
VvOYltara
p7039
sI7054
VvOYrma
p7040
sI7055
VvOYrmiMga
p7041
sI7056
VvOYtaraprUPa
p7042
sI7057
VvOYtaravarlda
p7043
sI7058
VvaMSa
p7044
sI7059
VvaMSaja
p7045
sI7060
VvaMSajoM
p7046
sI7061
VvaMdUra
p7047
sI7062
VvaMdara
p7048
sI7063
VvaMxAvana
p7049
sI7064
VvaXa
p7050
sI7065
VvahAz
p7051
sI7066
Vvahana
p7052
sI7067
VvajaheM
p7053
sI7068
Vvajana
p7054
sI7069
VvalaMbI
p7055
sI7070
VvanamAnuRa
p7056
sI7071
Vvanaspawi
p7057
sI7072
VvanavAsI
p7058
sI7073
VvanavAsa
p7059
sI7074
VvarNiwa
p7060
sI7075
VvarRIya
p7061
sI7076
VvarSa
p7062
sI7077
VvarUNa
p7063
sI7078
VvariRTa
p7064
sI7079
VvarmA
p7065
sI7080
Vvarmana
p7066
sI7081
VvarrrARa
p7067
sI7082
VvasUlA
p7068
sI7083
VvasUlawI
p7069
sI7084
VvasaMwa
p7070
sI7085
Vvaswra
p7071
sI7086
Vvaswuez
p7072
sI7087
VvaswuwaH
p7073
sI7088
VveMcara
p7074
sI7089
VveMkataramanasvAmI
p7075
sI7090
VveNugopAla
p7076
sI7091
VveSaBURA
p7077
sI7092
VveSyA
p7078
sI7093
VvegAsa
p7079
sI7094
Vvelakama
p7080
sI7095
VvelhA
p7081
sI7096
Vvelsa
p7082
sI7097
Vvemana
p7083
sI7098
Vvenisa
p7084
sI7099
VverAvala
p7085
sI7100
Vvestarna
p7086
sI7101
Vveta
p7087
sI7102
Vvetara
p7088
sI7103
VvetiMga
p7089
sI7104
Vvevsa
p7090
sI7105
VvexApurIsavararAra
p7091
sI7106
VvhIla
p7092
sI7107
VviBAjiwa
p7093
sI7108
VviMga
p7094
sI7109
VviMteja
p7095
sI7110
VviRamawAoM
p7096
sI7111
VviSAlakAya
p7097
sI7112
VviSeRajFoM
p7098
sI7113
VviSiRtawA
p7099
sI7114
VviSleRaka
p7100
sI7115
VviSleRakoM
p7101
sI7116
VviXAnasaBA
p7102
sI7117
VviXi
p7103
sI7118
VvibAdZI
p7104
sI7119
VvicAraXArA
p7105
sI7120
VvicArakoM
p7106
sI7121
VvicAroM
p7107
sI7122
Vviciwra
p7108
sI7123
VvijFAniyoM
p7109
sI7124
VvijFApana
p7110
sI7125
VvijayA
p7111
sI7126
Vvijayanagara
p7112
sI7127
VvijewA
p7113
sI7128
VvijewAoM
p7114
sI7129
VvijibilitI
p7115
sI7130
VvikAsaSIla
p7116
sI7131
VviktoriyA
p7117
sI7132
VvilIna
p7118
sI7133
Vvimina
p7119
sI7134
Vvimohiwa
p7120
sI7135
Vvinaya
p7121
sI7136
VvinxuoM
p7122
sI7137
VvinyAsa
p7123
sI7138
VviparIwa
p7124
sI7139
Vvipro
p7125
sI7140
VvirAsawI
p7126
sI7141
VviroXABAsI
p7127
sI7142
VviroXI
p7128
sI7143
VviroXa
p7129
sI7144
VviskI
p7130
sI7145
Vvismiwa
p7131
sI7146
VvivAxoM
p7132
sI7147
VvivaXa
p7133
sI7148
VvivaraNa
p7134
sI7149
VvivaraNikAoM
p7135
sI7150
VviviXA
p7136
sI7151
VviviXa
p7137
sI7152
VviviXawAoM
p7138
sI7153
VvixeSoM
p7139
sI7154
VvixvAnoM
p7140
sI7155
VvixyAlaya
p7141
sI7156
VvixyAna
p7142
sI7157
VvixyamAna
p7143
sI7158
VvixyuwIya
p7144
sI7159
Vviyara
p7145
sI7160
VviyenA
p7146
sI7161
Vvo
p7147
sI7162
VvodeyAra
p7148
sI7163
VvodeyArsa
p7149
sI7164
VvotiMga
p7150
sI7165
Vvqhaxa
p7151
sI7166
VvqwwAkAra
p7152
sI7167
VvqxXi
p7153
sI7168
Vvuda
p7154
sI7169
VvyApArI
p7155
sI7170
VvyApArika
p7156
sI7171
VvyApAriyoM
p7157
sI7172
VvyAsa
p7158
sI7173
VvyAyAmaSAlAez
p7159
sI7174
VvyaMgya
p7160
sI7175
Vvyakwiwva
p7161
sI7176
VvyavasWiwa
p7162
sI7177
VwA
p7163
sI7178
VwAMgalAMga
p7164
sI7179
VwAjA
p7165
sI7180
VwAjI
p7166
sI7181
VwAjagI
p7167
sI7182
VwAlAba
p7168
sI7183
VwAlAboM
p7169
sI7184
VwAle
p7170
sI7185
VwAliyoM
p7171
sI7186
VwAma
p7172
sI7187
VwArA
p7173
sI7188
VwArAmaNdala
p7174
sI7189
VwArIKa
p7175
sI7190
VwAranewara
p7176
sI7191
VwAre
p7177
sI7192
VwAroM
p7178
sI7193
VwAumra
p7179
sI7194
VwEnAwa
p7180
sI7195
VwIrWoM
p7181
sI7196
VwIsarI
p7182
sI7197
VwIswA
p7183
sI7198
VwUwAKAnUma
p7184
sI7199
VwaMbU
p7185
sI7200
VwaMwra
p7186
sI7201
VwaMwroM
p7187
sI7202
VwabAhI
p7188
sI7203
VwahakIkAwa
p7189
sI7204
VwahasIlaxAra
p7190
sI7205
VwakanIka
p7191
sI7206
VwakwasaMga
p7192
sI7207
VwalASA
p7193
sI7208
VwalASI
p7194
sI7209
Vwamadila
p7195
sI7210
VwamannA
p7196
sI7211
VwanAva
p7197
sI7212
Vwana
p7198
sI7213
Vwane
p7199
sI7214
VwarAI
p7200
sI7215
VwarASI
p7201
sI7216
VwarAiyoM
p7202
sI7217
VwaraNa
p7203
sI7218
VwaraPZa
p7204
sI7219
VwaraSavAwI
p7205
sI7220
VwaraSavAwIM
p7206
sI7221
VwarakIba
p7207
sI7222
VwarakkI
p7208
sI7223
VwarowAjA
p7209
sI7224
VwaruNa
p7210
sI7225
VwasvIreM
p7211
sI7226
VwatavarwI
p7212
sI7227
VwawvoM
p7213
sI7228
VwejZa
p7214
sI7229
Vwenxue
p7215
sI7230
VwimAhI
p7216
sI7231
VwipI
p7217
sI7232
VwirUpawi
p7218
sI7233
VwirUvannawapurama
p7219
sI7234
VwirakRe
p7220
sI7235
Vwivvawa
p7221
sI7236
VwodZawI
p7222
sI7237
VwopeM
p7223
sI7238
VworaNa
p7224
sI7239
VworaNapaWa
p7225
sI7240
VworaNoM
p7226
sI7241
VwrASigaMga
p7227
sI7242
VwrAvaNakora
p7228
sI7243
VwrewA
p7229
sI7244
VwriSUla
p7230
sI7245
VwrikoNa
p7231
sI7246
VwripurA
p7232
sI7247
VwriveMxrama
p7233
sI7248
VwriveNI
p7234
sI7249
Vwrixeva
p7235
sI7250
VwriyuMda
p7236
sI7251
VwuMgaBaxrA
p7237
sI7252
Vwuma
p7238
sI7253
VwurkI
p7239
sI7254
VwvacA
p7240
sI7255
Vwwwhimachaltourismcom
p7241
sI7256
VwyAga
p7242
sI7257
VwyohAroM
p7243
sI7258
VxAIM
p7244
sI7259
VxAMva
p7245
sI7260
VxAhine
p7246
sI7261
VxAmoxara
p7247
sI7262
VxArjiliMga
p7248
sI7263
VxAswAM
p7249
sI7264
VxAswAna
p7250
sI7265
VxAvakI
p7251
sI7266
VxAvawa
p7252
sI7267
VxEnika
p7253
sI7268
VxIM
p7254
sI7269
VxIpeSa
p7255
sI7270
VxIrGAez
p7256
sI7271
VxOdZAeM
p7257
sI7272
VxOdZAne
p7258
sI7273
VxOdZane
p7259
sI7274
VxOdZawI
p7260
sI7275
VxOlawa
p7261
sI7276
VxOre
p7262
sI7277
VxUXiyA
p7263
sI7278
VxUba
p7264
sI7279
VxUna
p7265
sI7280
VxUriyoM
p7266
sI7281
VxUwAvAsoM
p7267
sI7282
VxaMdAXikArI
p7268
sI7283
VxaMwa
p7269
sI7284
VxaMwakaWAeM
p7270
sI7285
VxaPZanAyA
p7271
sI7286
VxaSA
p7272
sI7287
VxaSAoM
p7273
sI7288
VxaSaharA
p7274
sI7289
VxabAeM
p7275
sI7290
Vxabakara
p7276
sI7291
VxalaxalIya
p7277
sI7292
Vxama
p7278
sI7293
VxamaxAra
p7279
sI7294
Vxanwa
p7280
sI7295
VxarSaka
p7281
sI7296
VxarSakoM
p7282
sI7297
VxarSanoM
p7283
sI7298
VxarabAra
p7284
sI7299
VxaravAjZA
p7285
sI7300
VxaravAje
p7286
sI7301
VxariyA
p7287
sI7302
Vxarja
p7288
sI7303
Vxarjana
p7289
sI7304
Vxarxa
p7290
sI7305
VxasAvaWarama
p7291
sI7306
VxaswAveja
p7292
sI7307
VxaswakArI
p7293
sI7308
VxaswakAra
p7294
sI7309
VxavAiyoM
p7295
sI7310
VxawwAwreya
p7296
sI7311
VxayAnaMxa
p7297
sI7312
VxeKIM
p7298
sI7313
VxeKareKa
p7299
sI7314
VxeKawA
p7300
sI7315
VxeKawI
p7301
sI7316
VxeKeMge
p7302
sI7317
VxeMgI
p7303
sI7318
VxeSAMwarika
p7304
sI7319
VxeSaBara
p7305
sI7320
VxeSavAla
p7306
sI7321
VxegA
p7307
sI7322
Vxekara
p7308
sI7323
VxesI
p7309
sI7324
Vxeva
p7310
sI7325
VxevalAlI
p7311
sI7326
VxevawA
p7312
sI7327
VxevawAo
p7313
sI7328
VxevawAoM
p7314
sI7329
VxevaxUwa
p7315
sI7330
Vxevo
p7316
sI7331
VxevoM
p7317
sI7332
Vxi
p7318
sI7333
VxiKAwA
p7319
sI7334
VxiKAwe
p7320
sI7335
VxiKa
p7321
sI7336
VxiKawe
p7322
sI7337
VxiKe
p7323
sI7338
VxiSAnirxeSa
p7324
sI7339
VxiSAoM
p7325
sI7340
Vxigambara
p7326
sI7341
VxilAne
p7327
sI7342
VxilaWamana
p7328
sI7343
VxilavA
p7329
sI7344
VxilavAne
p7330
sI7345
VxinaBara
p7331
sI7346
VxinagI
p7332
sI7347
Vxiowa
p7333
sI7348
VxirAMga
p7334
sI7349
VxivAlI
p7335
sI7350
VxivAreM
p7336
sI7351
VxivAroM
p7337
sI7352
VxivasIya
p7338
sI7353
Vxivasa
p7339
sI7354
Vxivya
p7340
sI7355
VxivyaxarSI
p7341
sI7356
VxoRarahiwa
p7342
sI7357
VxoRiyoM
p7343
sI7358
VxoharAne
p7344
sI7359
VxoharI
p7345
sI7360
VxomaMjilA
p7346
sI7361
Vxopahara
p7347
sI7362
VxoswI
p7348
sI7363
VxqDZalomI
p7349
sI7364
VxqDZawApUrvaka
p7350
sI7365
Vxravidiyana
p7351
sI7366
Vxu
p7352
sI7367
VxuA
p7353
sI7368
VxuKoM
p7354
sI7369
VxuSAle
p7355
sI7370
VxuXA
p7356
sI7371
Vxugarma
p7357
sI7372
VxugunI
p7358
sI7373
VxulArawI
p7359
sI7374
VxurBAgya
p7360
sI7375
VxurboXa
p7361
sI7376
Vxurgama
p7362
sI7377
VxurgoM
p7363
sI7378
VxvIpIya
p7364
sI7379
VxvivexI
p7365
sI7380
VyAwanAoM
p7366
sI7381
VyAwrI
p7367
sI7382
VyAxoM
p7368
sI7383
VyOYtoM
p7369
sI7384
VyOna
p7370
sI7385
VyOvana
p7371
sI7386
VyUWa
p7372
sI7387
VyUeI
p7373
sI7388
VyUjara
p7374
sI7389
VyUnIka
p7375
sI7390
VyUnivarsitI
p7376
sI7391
VyUniyana
p7377
sI7392
VyUtarasa
p7378
sI7393
Vya
p7379
sI7394
VyaMgastarsa
p7380
sI7395
VyaMwravijFAna
p7381
sI7396
VyaMwroM
p7382
sI7397
VyaSoxA
p7383
sI7398
VyaWArWavAxiyoM
p7384
sI7399
VyaWociwa
p7385
sI7400
VyahOYz
p7386
sI7401
Vyelo
p7387
sI7402
VyojanAoM
p7388
sI7403
Vyuga
p7389
sI7404
Vyugala
p7390
sI7405
Vyukwi
p7391
sI7406
VyuvAoM
p7392
sI7407
VyuvawiyAM
p7393
sI7408
VyuxGa
p7394
sI7409
VyuxXa
p7395
sI7410
VyuxXanIwika
p7396
ss.